
main_logic.elf:     file format elf32-avr

Sections:
Idx Name          Size      VMA       LMA       File off  Algn
  0 .data         000000fc  00800100  00000abe  00000b52  2**0
                  CONTENTS, ALLOC, LOAD, DATA
  1 .text         00000abe  00000000  00000000  00000094  2**1
                  CONTENTS, ALLOC, LOAD, READONLY, CODE
  2 .bss          00000021  008001fc  008001fc  00000c4e  2**0
                  ALLOC
  3 .comment      00000030  00000000  00000000  00000c4e  2**0
                  CONTENTS, READONLY
  4 .note.gnu.avr.deviceinfo 00000040  00000000  00000000  00000c80  2**2
                  CONTENTS, READONLY
  5 .debug_aranges 000000e8  00000000  00000000  00000cc0  2**0
                  CONTENTS, READONLY, DEBUGGING
  6 .debug_info   00000f19  00000000  00000000  00000da8  2**0
                  CONTENTS, READONLY, DEBUGGING
  7 .debug_abbrev 00000919  00000000  00000000  00001cc1  2**0
                  CONTENTS, READONLY, DEBUGGING
  8 .debug_line   000009fb  00000000  00000000  000025da  2**0
                  CONTENTS, READONLY, DEBUGGING
  9 .debug_frame  000003a8  00000000  00000000  00002fd8  2**2
                  CONTENTS, READONLY, DEBUGGING
 10 .debug_str    00000684  00000000  00000000  00003380  2**0
                  CONTENTS, READONLY, DEBUGGING
 11 .debug_loc    000007df  00000000  00000000  00003a04  2**0
                  CONTENTS, READONLY, DEBUGGING
 12 .debug_ranges 000000d8  00000000  00000000  000041e3  2**0
                  CONTENTS, READONLY, DEBUGGING

Disassembly of section .text:

00000000 <__vectors>:
   0:	45 c0       	rjmp	.+138    	; 0x8c <__ctors_end>
   2:	00 00       	nop
   4:	60 c0       	rjmp	.+192    	; 0xc6 <__bad_interrupt>
   6:	00 00       	nop
   8:	5e c0       	rjmp	.+188    	; 0xc6 <__bad_interrupt>
   a:	00 00       	nop
   c:	5c c0       	rjmp	.+184    	; 0xc6 <__bad_interrupt>
   e:	00 00       	nop
  10:	5a c0       	rjmp	.+180    	; 0xc6 <__bad_interrupt>
  12:	00 00       	nop
  14:	58 c0       	rjmp	.+176    	; 0xc6 <__bad_interrupt>
  16:	00 00       	nop
  18:	56 c0       	rjmp	.+172    	; 0xc6 <__bad_interrupt>
  1a:	00 00       	nop
  1c:	54 c0       	rjmp	.+168    	; 0xc6 <__bad_interrupt>
  1e:	00 00       	nop
  20:	52 c0       	rjmp	.+164    	; 0xc6 <__bad_interrupt>
  22:	00 00       	nop
  24:	50 c0       	rjmp	.+160    	; 0xc6 <__bad_interrupt>
  26:	00 00       	nop
  28:	4e c0       	rjmp	.+156    	; 0xc6 <__bad_interrupt>
  2a:	00 00       	nop
  2c:	4c c0       	rjmp	.+152    	; 0xc6 <__bad_interrupt>
  2e:	00 00       	nop
  30:	4a c0       	rjmp	.+148    	; 0xc6 <__bad_interrupt>
  32:	00 00       	nop
  34:	bc c1       	rjmp	.+888    	; 0x3ae <__vector_13>
  36:	00 00       	nop
  38:	46 c0       	rjmp	.+140    	; 0xc6 <__bad_interrupt>
  3a:	00 00       	nop
  3c:	44 c0       	rjmp	.+136    	; 0xc6 <__bad_interrupt>
  3e:	00 00       	nop
  40:	42 c0       	rjmp	.+132    	; 0xc6 <__bad_interrupt>
  42:	00 00       	nop
  44:	40 c0       	rjmp	.+128    	; 0xc6 <__bad_interrupt>
  46:	00 00       	nop
  48:	3e c0       	rjmp	.+124    	; 0xc6 <__bad_interrupt>
  4a:	00 00       	nop
  4c:	3c c0       	rjmp	.+120    	; 0xc6 <__bad_interrupt>
  4e:	00 00       	nop
  50:	3a c0       	rjmp	.+116    	; 0xc6 <__bad_interrupt>
  52:	00 00       	nop
  54:	38 c0       	rjmp	.+112    	; 0xc6 <__bad_interrupt>
  56:	00 00       	nop
  58:	36 c0       	rjmp	.+108    	; 0xc6 <__bad_interrupt>
  5a:	00 00       	nop
  5c:	34 c0       	rjmp	.+104    	; 0xc6 <__bad_interrupt>
  5e:	00 00       	nop
  60:	32 c0       	rjmp	.+100    	; 0xc6 <__bad_interrupt>
  62:	00 00       	nop
  64:	30 c0       	rjmp	.+96     	; 0xc6 <__bad_interrupt>
  66:	00 00       	nop
  68:	2e c0       	rjmp	.+92     	; 0xc6 <__bad_interrupt>
  6a:	00 00       	nop
  6c:	2c c0       	rjmp	.+88     	; 0xc6 <__bad_interrupt>
  6e:	00 00       	nop
  70:	2a c0       	rjmp	.+84     	; 0xc6 <__bad_interrupt>
  72:	00 00       	nop
  74:	28 c0       	rjmp	.+80     	; 0xc6 <__bad_interrupt>
  76:	00 00       	nop
  78:	26 c0       	rjmp	.+76     	; 0xc6 <__bad_interrupt>
  7a:	00 00       	nop
  7c:	24 c0       	rjmp	.+72     	; 0xc6 <__bad_interrupt>
  7e:	00 00       	nop
  80:	22 c0       	rjmp	.+68     	; 0xc6 <__bad_interrupt>
  82:	00 00       	nop
  84:	20 c0       	rjmp	.+64     	; 0xc6 <__bad_interrupt>
  86:	00 00       	nop
  88:	1e c0       	rjmp	.+60     	; 0xc6 <__bad_interrupt>
	...

0000008c <__ctors_end>:
  8c:	11 24       	eor	r1, r1
  8e:	1f be       	out	0x3f, r1	; 63
  90:	cf ef       	ldi	r28, 0xFF	; 255
  92:	d0 e4       	ldi	r29, 0x40	; 64
  94:	de bf       	out	0x3e, r29	; 62
  96:	cd bf       	out	0x3d, r28	; 61

00000098 <__do_copy_data>:
  98:	11 e0       	ldi	r17, 0x01	; 1
  9a:	a0 e0       	ldi	r26, 0x00	; 0
  9c:	b1 e0       	ldi	r27, 0x01	; 1
  9e:	ee eb       	ldi	r30, 0xBE	; 190
  a0:	fa e0       	ldi	r31, 0x0A	; 10
  a2:	00 e0       	ldi	r16, 0x00	; 0
  a4:	0b bf       	out	0x3b, r16	; 59
  a6:	02 c0       	rjmp	.+4      	; 0xac <__do_copy_data+0x14>
  a8:	07 90       	elpm	r0, Z+
  aa:	0d 92       	st	X+, r0
  ac:	ac 3f       	cpi	r26, 0xFC	; 252
  ae:	b1 07       	cpc	r27, r17
  b0:	d9 f7       	brne	.-10     	; 0xa8 <__do_copy_data+0x10>

000000b2 <__do_clear_bss>:
  b2:	22 e0       	ldi	r18, 0x02	; 2
  b4:	ac ef       	ldi	r26, 0xFC	; 252
  b6:	b1 e0       	ldi	r27, 0x01	; 1
  b8:	01 c0       	rjmp	.+2      	; 0xbc <.do_clear_bss_start>

000000ba <.do_clear_bss_loop>:
  ba:	1d 92       	st	X+, r1

000000bc <.do_clear_bss_start>:
  bc:	ad 31       	cpi	r26, 0x1D	; 29
  be:	b2 07       	cpc	r27, r18
  c0:	e1 f7       	brne	.-8      	; 0xba <.do_clear_bss_loop>
  c2:	1b d4       	rcall	.+2102   	; 0x8fa <main>
  c4:	fa c4       	rjmp	.+2548   	; 0xaba <_exit>

000000c6 <__bad_interrupt>:
  c6:	9c cf       	rjmp	.-200    	; 0x0 <__vectors>

000000c8 <initUSART>:
	SREG |= 0x80; // 0x80: 1000000
}

void TimerOff() {
	TCCR1B = 0x00; // bit3bit1bit0=000: timer off
}
  c8:	cf 93       	push	r28
  ca:	df 93       	push	r29
  cc:	1f 92       	push	r1
  ce:	cd b7       	in	r28, 0x3d	; 61
  d0:	de b7       	in	r29, 0x3e	; 62
  d2:	89 83       	std	Y+1, r24	; 0x01
  d4:	89 81       	ldd	r24, Y+1	; 0x01
  d6:	81 30       	cpi	r24, 0x01	; 1
  d8:	e1 f0       	breq	.+56     	; 0x112 <initUSART+0x4a>
  da:	81 ec       	ldi	r24, 0xC1	; 193
  dc:	90 e0       	ldi	r25, 0x00	; 0
  de:	21 ec       	ldi	r18, 0xC1	; 193
  e0:	30 e0       	ldi	r19, 0x00	; 0
  e2:	f9 01       	movw	r30, r18
  e4:	20 81       	ld	r18, Z
  e6:	28 61       	ori	r18, 0x18	; 24
  e8:	fc 01       	movw	r30, r24
  ea:	20 83       	st	Z, r18
  ec:	82 ec       	ldi	r24, 0xC2	; 194
  ee:	90 e0       	ldi	r25, 0x00	; 0
  f0:	22 ec       	ldi	r18, 0xC2	; 194
  f2:	30 e0       	ldi	r19, 0x00	; 0
  f4:	f9 01       	movw	r30, r18
  f6:	20 81       	ld	r18, Z
  f8:	26 60       	ori	r18, 0x06	; 6
  fa:	fc 01       	movw	r30, r24
  fc:	20 83       	st	Z, r18
  fe:	84 ec       	ldi	r24, 0xC4	; 196
 100:	90 e0       	ldi	r25, 0x00	; 0
 102:	23 e3       	ldi	r18, 0x33	; 51
 104:	fc 01       	movw	r30, r24
 106:	20 83       	st	Z, r18
 108:	85 ec       	ldi	r24, 0xC5	; 197
 10a:	90 e0       	ldi	r25, 0x00	; 0
 10c:	fc 01       	movw	r30, r24
 10e:	10 82       	st	Z, r1
 110:	1b c0       	rjmp	.+54     	; 0x148 <initUSART+0x80>
 112:	89 ec       	ldi	r24, 0xC9	; 201
 114:	90 e0       	ldi	r25, 0x00	; 0
 116:	29 ec       	ldi	r18, 0xC9	; 201
 118:	30 e0       	ldi	r19, 0x00	; 0
 11a:	f9 01       	movw	r30, r18
 11c:	20 81       	ld	r18, Z
 11e:	28 61       	ori	r18, 0x18	; 24
 120:	fc 01       	movw	r30, r24
 122:	20 83       	st	Z, r18
 124:	8a ec       	ldi	r24, 0xCA	; 202
 126:	90 e0       	ldi	r25, 0x00	; 0
 128:	2a ec       	ldi	r18, 0xCA	; 202
 12a:	30 e0       	ldi	r19, 0x00	; 0
 12c:	f9 01       	movw	r30, r18
 12e:	20 81       	ld	r18, Z
 130:	26 60       	ori	r18, 0x06	; 6
 132:	fc 01       	movw	r30, r24
 134:	20 83       	st	Z, r18
 136:	8c ec       	ldi	r24, 0xCC	; 204
 138:	90 e0       	ldi	r25, 0x00	; 0
 13a:	23 e3       	ldi	r18, 0x33	; 51
 13c:	fc 01       	movw	r30, r24
 13e:	20 83       	st	Z, r18
 140:	8d ec       	ldi	r24, 0xCD	; 205
 142:	90 e0       	ldi	r25, 0x00	; 0
 144:	fc 01       	movw	r30, r24
 146:	10 82       	st	Z, r1
 148:	00 00       	nop
 14a:	0f 90       	pop	r0
 14c:	df 91       	pop	r29
 14e:	cf 91       	pop	r28
 150:	08 95       	ret

00000152 <USART_HasReceived>:
 152:	cf 93       	push	r28
 154:	df 93       	push	r29
 156:	1f 92       	push	r1
 158:	cd b7       	in	r28, 0x3d	; 61
 15a:	de b7       	in	r29, 0x3e	; 62
 15c:	89 83       	std	Y+1, r24	; 0x01
 15e:	89 81       	ldd	r24, Y+1	; 0x01
 160:	81 30       	cpi	r24, 0x01	; 1
 162:	31 f0       	breq	.+12     	; 0x170 <USART_HasReceived+0x1e>
 164:	80 ec       	ldi	r24, 0xC0	; 192
 166:	90 e0       	ldi	r25, 0x00	; 0
 168:	fc 01       	movw	r30, r24
 16a:	80 81       	ld	r24, Z
 16c:	80 78       	andi	r24, 0x80	; 128
 16e:	05 c0       	rjmp	.+10     	; 0x17a <USART_HasReceived+0x28>
 170:	88 ec       	ldi	r24, 0xC8	; 200
 172:	90 e0       	ldi	r25, 0x00	; 0
 174:	fc 01       	movw	r30, r24
 176:	80 81       	ld	r24, Z
 178:	80 78       	andi	r24, 0x80	; 128
 17a:	0f 90       	pop	r0
 17c:	df 91       	pop	r29
 17e:	cf 91       	pop	r28
 180:	08 95       	ret

00000182 <USART_Receive>:
 182:	cf 93       	push	r28
 184:	df 93       	push	r29
 186:	1f 92       	push	r1
 188:	cd b7       	in	r28, 0x3d	; 61
 18a:	de b7       	in	r29, 0x3e	; 62
 18c:	89 83       	std	Y+1, r24	; 0x01
 18e:	89 81       	ldd	r24, Y+1	; 0x01
 190:	81 30       	cpi	r24, 0x01	; 1
 192:	61 f0       	breq	.+24     	; 0x1ac <USART_Receive+0x2a>
 194:	00 00       	nop
 196:	80 ec       	ldi	r24, 0xC0	; 192
 198:	90 e0       	ldi	r25, 0x00	; 0
 19a:	fc 01       	movw	r30, r24
 19c:	80 81       	ld	r24, Z
 19e:	88 23       	and	r24, r24
 1a0:	d4 f7       	brge	.-12     	; 0x196 <USART_Receive+0x14>
 1a2:	86 ec       	ldi	r24, 0xC6	; 198
 1a4:	90 e0       	ldi	r25, 0x00	; 0
 1a6:	fc 01       	movw	r30, r24
 1a8:	80 81       	ld	r24, Z
 1aa:	0b c0       	rjmp	.+22     	; 0x1c2 <USART_Receive+0x40>
 1ac:	00 00       	nop
 1ae:	88 ec       	ldi	r24, 0xC8	; 200
 1b0:	90 e0       	ldi	r25, 0x00	; 0
 1b2:	fc 01       	movw	r30, r24
 1b4:	80 81       	ld	r24, Z
 1b6:	88 23       	and	r24, r24
 1b8:	d4 f7       	brge	.-12     	; 0x1ae <USART_Receive+0x2c>
 1ba:	8e ec       	ldi	r24, 0xCE	; 206
 1bc:	90 e0       	ldi	r25, 0x00	; 0
 1be:	fc 01       	movw	r30, r24
 1c0:	80 81       	ld	r24, Z
 1c2:	0f 90       	pop	r0
 1c4:	df 91       	pop	r29
 1c6:	cf 91       	pop	r28
 1c8:	08 95       	ret

000001ca <TimerOn>:
 1ca:	cf 93       	push	r28
 1cc:	df 93       	push	r29
 1ce:	cd b7       	in	r28, 0x3d	; 61
 1d0:	de b7       	in	r29, 0x3e	; 62
 1d2:	81 e8       	ldi	r24, 0x81	; 129
 1d4:	90 e0       	ldi	r25, 0x00	; 0
 1d6:	2b e0       	ldi	r18, 0x0B	; 11
 1d8:	fc 01       	movw	r30, r24
 1da:	20 83       	st	Z, r18
 1dc:	88 e8       	ldi	r24, 0x88	; 136
 1de:	90 e0       	ldi	r25, 0x00	; 0
 1e0:	2f e0       	ldi	r18, 0x0F	; 15
 1e2:	30 e0       	ldi	r19, 0x00	; 0
 1e4:	fc 01       	movw	r30, r24
 1e6:	31 83       	std	Z+1, r19	; 0x01
 1e8:	20 83       	st	Z, r18
 1ea:	8f e6       	ldi	r24, 0x6F	; 111
 1ec:	90 e0       	ldi	r25, 0x00	; 0
 1ee:	22 e0       	ldi	r18, 0x02	; 2
 1f0:	fc 01       	movw	r30, r24
 1f2:	20 83       	st	Z, r18
 1f4:	84 e8       	ldi	r24, 0x84	; 132
 1f6:	90 e0       	ldi	r25, 0x00	; 0
 1f8:	fc 01       	movw	r30, r24
 1fa:	11 82       	std	Z+1, r1	; 0x01
 1fc:	10 82       	st	Z, r1
 1fe:	80 91 00 01 	lds	r24, 0x0100	; 0x800100 <__data_start>
 202:	90 91 01 01 	lds	r25, 0x0101	; 0x800101 <__data_start+0x1>
 206:	a0 91 02 01 	lds	r26, 0x0102	; 0x800102 <__data_start+0x2>
 20a:	b0 91 03 01 	lds	r27, 0x0103	; 0x800103 <__data_start+0x3>
 20e:	80 93 fe 01 	sts	0x01FE, r24	; 0x8001fe <_avr_timer_cntcurr>
 212:	90 93 ff 01 	sts	0x01FF, r25	; 0x8001ff <_avr_timer_cntcurr+0x1>
 216:	a0 93 00 02 	sts	0x0200, r26	; 0x800200 <_avr_timer_cntcurr+0x2>
 21a:	b0 93 01 02 	sts	0x0201, r27	; 0x800201 <_avr_timer_cntcurr+0x3>
 21e:	8f e5       	ldi	r24, 0x5F	; 95
 220:	90 e0       	ldi	r25, 0x00	; 0
 222:	2f e5       	ldi	r18, 0x5F	; 95
 224:	30 e0       	ldi	r19, 0x00	; 0
 226:	f9 01       	movw	r30, r18
 228:	20 81       	ld	r18, Z
 22a:	20 68       	ori	r18, 0x80	; 128
 22c:	fc 01       	movw	r30, r24
 22e:	20 83       	st	Z, r18
 230:	00 00       	nop
 232:	df 91       	pop	r29
 234:	cf 91       	pop	r28
 236:	08 95       	ret

00000238 <TimerISR>:
//void TimerISR() { TimerFlag = 1; }
void TimerISR() {
 238:	0f 93       	push	r16
 23a:	1f 93       	push	r17
 23c:	cf 93       	push	r28
 23e:	df 93       	push	r29
 240:	1f 92       	push	r1
 242:	cd b7       	in	r28, 0x3d	; 61
 244:	de b7       	in	r29, 0x3e	; 62
	unsigned char i;
	for (i = 0; i < tasksNum; ++i) {                     // Heart of the scheduler code
 246:	19 82       	std	Y+1, r1	; 0x01
 248:	a6 c0       	rjmp	.+332    	; 0x396 <TimerISR+0x15e>
		if ( tasks[i].elapsedTime >= tasks[i].period ) { // Ready
 24a:	89 81       	ldd	r24, Y+1	; 0x01
 24c:	28 2f       	mov	r18, r24
 24e:	30 e0       	ldi	r19, 0x00	; 0
 250:	c9 01       	movw	r24, r18
 252:	88 0f       	add	r24, r24
 254:	99 1f       	adc	r25, r25
 256:	82 0f       	add	r24, r18
 258:	93 1f       	adc	r25, r19
 25a:	88 0f       	add	r24, r24
 25c:	99 1f       	adc	r25, r25
 25e:	88 0f       	add	r24, r24
 260:	99 1f       	adc	r25, r25
 262:	88 5f       	subi	r24, 0xF8	; 248
 264:	9d 4f       	sbci	r25, 0xFD	; 253
 266:	fc 01       	movw	r30, r24
 268:	20 81       	ld	r18, Z
 26a:	31 81       	ldd	r19, Z+1	; 0x01
 26c:	42 81       	ldd	r20, Z+2	; 0x02
 26e:	53 81       	ldd	r21, Z+3	; 0x03
 270:	89 81       	ldd	r24, Y+1	; 0x01
 272:	68 2f       	mov	r22, r24
 274:	70 e0       	ldi	r23, 0x00	; 0
 276:	cb 01       	movw	r24, r22
 278:	88 0f       	add	r24, r24
 27a:	99 1f       	adc	r25, r25
 27c:	86 0f       	add	r24, r22
 27e:	97 1f       	adc	r25, r23
 280:	88 0f       	add	r24, r24
 282:	99 1f       	adc	r25, r25
 284:	88 0f       	add	r24, r24
 286:	99 1f       	adc	r25, r25
 288:	8c 5f       	subi	r24, 0xFC	; 252
 28a:	9d 4f       	sbci	r25, 0xFD	; 253
 28c:	fc 01       	movw	r30, r24
 28e:	80 81       	ld	r24, Z
 290:	91 81       	ldd	r25, Z+1	; 0x01
 292:	a2 81       	ldd	r26, Z+2	; 0x02
 294:	b3 81       	ldd	r27, Z+3	; 0x03
 296:	28 17       	cp	r18, r24
 298:	39 07       	cpc	r19, r25
 29a:	4a 07       	cpc	r20, r26
 29c:	5b 07       	cpc	r21, r27
 29e:	08 f4       	brcc	.+2      	; 0x2a2 <TimerISR+0x6a>
 2a0:	49 c0       	rjmp	.+146    	; 0x334 <TimerISR+0xfc>
			tasks[i].state = tasks[i].TickFct(tasks[i].state);
 2a2:	89 81       	ldd	r24, Y+1	; 0x01
 2a4:	08 2f       	mov	r16, r24
 2a6:	10 e0       	ldi	r17, 0x00	; 0
 2a8:	89 81       	ldd	r24, Y+1	; 0x01
 2aa:	28 2f       	mov	r18, r24
 2ac:	30 e0       	ldi	r19, 0x00	; 0
 2ae:	c9 01       	movw	r24, r18
 2b0:	88 0f       	add	r24, r24
 2b2:	99 1f       	adc	r25, r25
 2b4:	82 0f       	add	r24, r18
 2b6:	93 1f       	adc	r25, r19
 2b8:	88 0f       	add	r24, r24
 2ba:	99 1f       	adc	r25, r25
 2bc:	88 0f       	add	r24, r24
 2be:	99 1f       	adc	r25, r25
 2c0:	84 5f       	subi	r24, 0xF4	; 244
 2c2:	9d 4f       	sbci	r25, 0xFD	; 253
 2c4:	fc 01       	movw	r30, r24
 2c6:	40 81       	ld	r20, Z
 2c8:	51 81       	ldd	r21, Z+1	; 0x01
 2ca:	89 81       	ldd	r24, Y+1	; 0x01
 2cc:	28 2f       	mov	r18, r24
 2ce:	30 e0       	ldi	r19, 0x00	; 0
 2d0:	c9 01       	movw	r24, r18
 2d2:	88 0f       	add	r24, r24
 2d4:	99 1f       	adc	r25, r25
 2d6:	82 0f       	add	r24, r18
 2d8:	93 1f       	adc	r25, r19
 2da:	88 0f       	add	r24, r24
 2dc:	99 1f       	adc	r25, r25
 2de:	88 0f       	add	r24, r24
 2e0:	99 1f       	adc	r25, r25
 2e2:	8e 5f       	subi	r24, 0xFE	; 254
 2e4:	9d 4f       	sbci	r25, 0xFD	; 253
 2e6:	fc 01       	movw	r30, r24
 2e8:	80 81       	ld	r24, Z
 2ea:	91 81       	ldd	r25, Z+1	; 0x01
 2ec:	fa 01       	movw	r30, r20
 2ee:	09 95       	icall
 2f0:	9c 01       	movw	r18, r24
 2f2:	c8 01       	movw	r24, r16
 2f4:	88 0f       	add	r24, r24
 2f6:	99 1f       	adc	r25, r25
 2f8:	80 0f       	add	r24, r16
 2fa:	91 1f       	adc	r25, r17
 2fc:	88 0f       	add	r24, r24
 2fe:	99 1f       	adc	r25, r25
 300:	88 0f       	add	r24, r24
 302:	99 1f       	adc	r25, r25
 304:	8e 5f       	subi	r24, 0xFE	; 254
 306:	9d 4f       	sbci	r25, 0xFD	; 253
 308:	fc 01       	movw	r30, r24
 30a:	31 83       	std	Z+1, r19	; 0x01
 30c:	20 83       	st	Z, r18
			tasks[i].elapsedTime = 0;
 30e:	89 81       	ldd	r24, Y+1	; 0x01
 310:	28 2f       	mov	r18, r24
 312:	30 e0       	ldi	r19, 0x00	; 0
 314:	c9 01       	movw	r24, r18
 316:	88 0f       	add	r24, r24
 318:	99 1f       	adc	r25, r25
 31a:	82 0f       	add	r24, r18
 31c:	93 1f       	adc	r25, r19
 31e:	88 0f       	add	r24, r24
 320:	99 1f       	adc	r25, r25
 322:	88 0f       	add	r24, r24
 324:	99 1f       	adc	r25, r25
 326:	88 5f       	subi	r24, 0xF8	; 248
 328:	9d 4f       	sbci	r25, 0xFD	; 253
 32a:	fc 01       	movw	r30, r24
 32c:	10 82       	st	Z, r1
 32e:	11 82       	std	Z+1, r1	; 0x01
 330:	12 82       	std	Z+2, r1	; 0x02
 332:	13 82       	std	Z+3, r1	; 0x03
		}
		tasks[i].elapsedTime += tasksPeriodGCD;
 334:	89 81       	ldd	r24, Y+1	; 0x01
 336:	68 2f       	mov	r22, r24
 338:	70 e0       	ldi	r23, 0x00	; 0
 33a:	89 81       	ldd	r24, Y+1	; 0x01
 33c:	28 2f       	mov	r18, r24
 33e:	30 e0       	ldi	r19, 0x00	; 0
 340:	c9 01       	movw	r24, r18
 342:	88 0f       	add	r24, r24
 344:	99 1f       	adc	r25, r25
 346:	82 0f       	add	r24, r18
 348:	93 1f       	adc	r25, r19
 34a:	88 0f       	add	r24, r24
 34c:	99 1f       	adc	r25, r25
 34e:	88 0f       	add	r24, r24
 350:	99 1f       	adc	r25, r25
 352:	88 5f       	subi	r24, 0xF8	; 248
 354:	9d 4f       	sbci	r25, 0xFD	; 253
 356:	fc 01       	movw	r30, r24
 358:	80 81       	ld	r24, Z
 35a:	91 81       	ldd	r25, Z+1	; 0x01
 35c:	a2 81       	ldd	r26, Z+2	; 0x02
 35e:	b3 81       	ldd	r27, Z+3	; 0x03
 360:	2a e0       	ldi	r18, 0x0A	; 10
 362:	30 e0       	ldi	r19, 0x00	; 0
 364:	40 e0       	ldi	r20, 0x00	; 0
 366:	50 e0       	ldi	r21, 0x00	; 0
 368:	28 0f       	add	r18, r24
 36a:	39 1f       	adc	r19, r25
 36c:	4a 1f       	adc	r20, r26
 36e:	5b 1f       	adc	r21, r27
 370:	cb 01       	movw	r24, r22
 372:	88 0f       	add	r24, r24
 374:	99 1f       	adc	r25, r25
 376:	86 0f       	add	r24, r22
 378:	97 1f       	adc	r25, r23
 37a:	88 0f       	add	r24, r24
 37c:	99 1f       	adc	r25, r25
 37e:	88 0f       	add	r24, r24
 380:	99 1f       	adc	r25, r25
 382:	88 5f       	subi	r24, 0xF8	; 248
 384:	9d 4f       	sbci	r25, 0xFD	; 253
 386:	fc 01       	movw	r30, r24
 388:	20 83       	st	Z, r18
 38a:	31 83       	std	Z+1, r19	; 0x01
 38c:	42 83       	std	Z+2, r20	; 0x02
 38e:	53 83       	std	Z+3, r21	; 0x03
	TCCR1B = 0x00; // bit3bit1bit0=000: timer off
}
//void TimerISR() { TimerFlag = 1; }
void TimerISR() {
	unsigned char i;
	for (i = 0; i < tasksNum; ++i) {                     // Heart of the scheduler code
 390:	89 81       	ldd	r24, Y+1	; 0x01
 392:	8f 5f       	subi	r24, 0xFF	; 255
 394:	89 83       	std	Y+1, r24	; 0x01
 396:	82 e0       	ldi	r24, 0x02	; 2
 398:	99 81       	ldd	r25, Y+1	; 0x01
 39a:	98 17       	cp	r25, r24
 39c:	08 f4       	brcc	.+2      	; 0x3a0 <TimerISR+0x168>
 39e:	55 cf       	rjmp	.-342    	; 0x24a <TimerISR+0x12>
			tasks[i].state = tasks[i].TickFct(tasks[i].state);
			tasks[i].elapsedTime = 0;
		}
		tasks[i].elapsedTime += tasksPeriodGCD;
	}
}
 3a0:	00 00       	nop
 3a2:	0f 90       	pop	r0
 3a4:	df 91       	pop	r29
 3a6:	cf 91       	pop	r28
 3a8:	1f 91       	pop	r17
 3aa:	0f 91       	pop	r16
 3ac:	08 95       	ret

000003ae <__vector_13>:
// In our approach, the C programmer does not touch this ISR, but rather TimerISR()
ISR(TIMER1_COMPA_vect) {
 3ae:	1f 92       	push	r1
 3b0:	0f 92       	push	r0
 3b2:	00 90 5f 00 	lds	r0, 0x005F	; 0x80005f <__TEXT_REGION_LENGTH__+0x7e005f>
 3b6:	0f 92       	push	r0
 3b8:	11 24       	eor	r1, r1
 3ba:	00 90 5b 00 	lds	r0, 0x005B	; 0x80005b <__TEXT_REGION_LENGTH__+0x7e005b>
 3be:	0f 92       	push	r0
 3c0:	2f 93       	push	r18
 3c2:	3f 93       	push	r19
 3c4:	4f 93       	push	r20
 3c6:	5f 93       	push	r21
 3c8:	6f 93       	push	r22
 3ca:	7f 93       	push	r23
 3cc:	8f 93       	push	r24
 3ce:	9f 93       	push	r25
 3d0:	af 93       	push	r26
 3d2:	bf 93       	push	r27
 3d4:	ef 93       	push	r30
 3d6:	ff 93       	push	r31
 3d8:	cf 93       	push	r28
 3da:	df 93       	push	r29
 3dc:	cd b7       	in	r28, 0x3d	; 61
 3de:	de b7       	in	r29, 0x3e	; 62
	// CPU automatically calls when TCNT1 == OCR1 (every 1 ms per TimerOn settings)
	_avr_timer_cntcurr--; // Count down to 0 rather than up to TOP
 3e0:	80 91 fe 01 	lds	r24, 0x01FE	; 0x8001fe <_avr_timer_cntcurr>
 3e4:	90 91 ff 01 	lds	r25, 0x01FF	; 0x8001ff <_avr_timer_cntcurr+0x1>
 3e8:	a0 91 00 02 	lds	r26, 0x0200	; 0x800200 <_avr_timer_cntcurr+0x2>
 3ec:	b0 91 01 02 	lds	r27, 0x0201	; 0x800201 <_avr_timer_cntcurr+0x3>
 3f0:	01 97       	sbiw	r24, 0x01	; 1
 3f2:	a1 09       	sbc	r26, r1
 3f4:	b1 09       	sbc	r27, r1
 3f6:	80 93 fe 01 	sts	0x01FE, r24	; 0x8001fe <_avr_timer_cntcurr>
 3fa:	90 93 ff 01 	sts	0x01FF, r25	; 0x8001ff <_avr_timer_cntcurr+0x1>
 3fe:	a0 93 00 02 	sts	0x0200, r26	; 0x800200 <_avr_timer_cntcurr+0x2>
 402:	b0 93 01 02 	sts	0x0201, r27	; 0x800201 <_avr_timer_cntcurr+0x3>
	if (_avr_timer_cntcurr == 0) { // results in a more efficient compare
 406:	80 91 fe 01 	lds	r24, 0x01FE	; 0x8001fe <_avr_timer_cntcurr>
 40a:	90 91 ff 01 	lds	r25, 0x01FF	; 0x8001ff <_avr_timer_cntcurr+0x1>
 40e:	a0 91 00 02 	lds	r26, 0x0200	; 0x800200 <_avr_timer_cntcurr+0x2>
 412:	b0 91 01 02 	lds	r27, 0x0201	; 0x800201 <_avr_timer_cntcurr+0x3>
 416:	89 2b       	or	r24, r25
 418:	8a 2b       	or	r24, r26
 41a:	8b 2b       	or	r24, r27
 41c:	89 f4       	brne	.+34     	; 0x440 <__LOCK_REGION_LENGTH__+0x40>
		TimerISR(); // Call the ISR that the user uses
 41e:	0c df       	rcall	.-488    	; 0x238 <TimerISR>
		_avr_timer_cntcurr = _avr_timer_M;
 420:	80 91 00 01 	lds	r24, 0x0100	; 0x800100 <__data_start>
 424:	90 91 01 01 	lds	r25, 0x0101	; 0x800101 <__data_start+0x1>
 428:	a0 91 02 01 	lds	r26, 0x0102	; 0x800102 <__data_start+0x2>
 42c:	b0 91 03 01 	lds	r27, 0x0103	; 0x800103 <__data_start+0x3>
 430:	80 93 fe 01 	sts	0x01FE, r24	; 0x8001fe <_avr_timer_cntcurr>
 434:	90 93 ff 01 	sts	0x01FF, r25	; 0x8001ff <_avr_timer_cntcurr+0x1>
 438:	a0 93 00 02 	sts	0x0200, r26	; 0x800200 <_avr_timer_cntcurr+0x2>
 43c:	b0 93 01 02 	sts	0x0201, r27	; 0x800201 <_avr_timer_cntcurr+0x3>
	}
}
 440:	00 00       	nop
 442:	df 91       	pop	r29
 444:	cf 91       	pop	r28
 446:	ff 91       	pop	r31
 448:	ef 91       	pop	r30
 44a:	bf 91       	pop	r27
 44c:	af 91       	pop	r26
 44e:	9f 91       	pop	r25
 450:	8f 91       	pop	r24
 452:	7f 91       	pop	r23
 454:	6f 91       	pop	r22
 456:	5f 91       	pop	r21
 458:	4f 91       	pop	r20
 45a:	3f 91       	pop	r19
 45c:	2f 91       	pop	r18
 45e:	0f 90       	pop	r0
 460:	00 92 5b 00 	sts	0x005B, r0	; 0x80005b <__TEXT_REGION_LENGTH__+0x7e005b>
 464:	0f 90       	pop	r0
 466:	00 92 5f 00 	sts	0x005F, r0	; 0x80005f <__TEXT_REGION_LENGTH__+0x7e005f>
 46a:	0f 90       	pop	r0
 46c:	1f 90       	pop	r1
 46e:	18 95       	reti

00000470 <TimerSet>:

// Set TimerISR() to tick every M ms
void TimerSet(unsigned long M) {
 470:	cf 93       	push	r28
 472:	df 93       	push	r29
 474:	00 d0       	rcall	.+0      	; 0x476 <TimerSet+0x6>
 476:	00 d0       	rcall	.+0      	; 0x478 <TimerSet+0x8>
 478:	cd b7       	in	r28, 0x3d	; 61
 47a:	de b7       	in	r29, 0x3e	; 62
 47c:	69 83       	std	Y+1, r22	; 0x01
 47e:	7a 83       	std	Y+2, r23	; 0x02
 480:	8b 83       	std	Y+3, r24	; 0x03
 482:	9c 83       	std	Y+4, r25	; 0x04
	_avr_timer_M = M;
 484:	89 81       	ldd	r24, Y+1	; 0x01
 486:	9a 81       	ldd	r25, Y+2	; 0x02
 488:	ab 81       	ldd	r26, Y+3	; 0x03
 48a:	bc 81       	ldd	r27, Y+4	; 0x04
 48c:	80 93 00 01 	sts	0x0100, r24	; 0x800100 <__data_start>
 490:	90 93 01 01 	sts	0x0101, r25	; 0x800101 <__data_start+0x1>
 494:	a0 93 02 01 	sts	0x0102, r26	; 0x800102 <__data_start+0x2>
 498:	b0 93 03 01 	sts	0x0103, r27	; 0x800103 <__data_start+0x3>
	_avr_timer_cntcurr = _avr_timer_M;
 49c:	80 91 00 01 	lds	r24, 0x0100	; 0x800100 <__data_start>
 4a0:	90 91 01 01 	lds	r25, 0x0101	; 0x800101 <__data_start+0x1>
 4a4:	a0 91 02 01 	lds	r26, 0x0102	; 0x800102 <__data_start+0x2>
 4a8:	b0 91 03 01 	lds	r27, 0x0103	; 0x800103 <__data_start+0x3>
 4ac:	80 93 fe 01 	sts	0x01FE, r24	; 0x8001fe <_avr_timer_cntcurr>
 4b0:	90 93 ff 01 	sts	0x01FF, r25	; 0x8001ff <_avr_timer_cntcurr+0x1>
 4b4:	a0 93 00 02 	sts	0x0200, r26	; 0x800200 <_avr_timer_cntcurr+0x2>
 4b8:	b0 93 01 02 	sts	0x0201, r27	; 0x800201 <_avr_timer_cntcurr+0x3>
}
 4bc:	00 00       	nop
 4be:	0f 90       	pop	r0
 4c0:	0f 90       	pop	r0
 4c2:	0f 90       	pop	r0
 4c4:	0f 90       	pop	r0
 4c6:	df 91       	pop	r29
 4c8:	cf 91       	pop	r28
 4ca:	08 95       	ret

000004cc <GetBit>:


unsigned char GetBit(unsigned char x, unsigned char k) {
 4cc:	cf 93       	push	r28
 4ce:	df 93       	push	r29
 4d0:	00 d0       	rcall	.+0      	; 0x4d2 <GetBit+0x6>
 4d2:	cd b7       	in	r28, 0x3d	; 61
 4d4:	de b7       	in	r29, 0x3e	; 62
 4d6:	89 83       	std	Y+1, r24	; 0x01
 4d8:	6a 83       	std	Y+2, r22	; 0x02
	return ((x & (0x01 << k)) != 0);
 4da:	89 81       	ldd	r24, Y+1	; 0x01
 4dc:	88 2f       	mov	r24, r24
 4de:	90 e0       	ldi	r25, 0x00	; 0
 4e0:	2a 81       	ldd	r18, Y+2	; 0x02
 4e2:	22 2f       	mov	r18, r18
 4e4:	30 e0       	ldi	r19, 0x00	; 0
 4e6:	02 c0       	rjmp	.+4      	; 0x4ec <GetBit+0x20>
 4e8:	95 95       	asr	r25
 4ea:	87 95       	ror	r24
 4ec:	2a 95       	dec	r18
 4ee:	e2 f7       	brpl	.-8      	; 0x4e8 <GetBit+0x1c>
 4f0:	81 70       	andi	r24, 0x01	; 1
 4f2:	99 27       	eor	r25, r25
 4f4:	21 e0       	ldi	r18, 0x01	; 1
 4f6:	89 2b       	or	r24, r25
 4f8:	09 f4       	brne	.+2      	; 0x4fc <GetBit+0x30>
 4fa:	20 e0       	ldi	r18, 0x00	; 0
 4fc:	82 2f       	mov	r24, r18
}
 4fe:	0f 90       	pop	r0
 500:	0f 90       	pop	r0
 502:	df 91       	pop	r29
 504:	cf 91       	pop	r28
 506:	08 95       	ret

00000508 <Tick_bluetooth>:

//=================bluetooth_SM=================//
enum bluetooth_state{Bstart, receive};
int Tick_bluetooth (int state){
 508:	cf 93       	push	r28
 50a:	df 93       	push	r29
 50c:	00 d0       	rcall	.+0      	; 0x50e <Tick_bluetooth+0x6>
 50e:	cd b7       	in	r28, 0x3d	; 61
 510:	de b7       	in	r29, 0x3e	; 62
 512:	9a 83       	std	Y+2, r25	; 0x02
 514:	89 83       	std	Y+1, r24	; 0x01
	switch(state){	//transitions
 516:	89 81       	ldd	r24, Y+1	; 0x01
 518:	9a 81       	ldd	r25, Y+2	; 0x02
 51a:	00 97       	sbiw	r24, 0x00	; 0
 51c:	19 f0       	breq	.+6      	; 0x524 <Tick_bluetooth+0x1c>
 51e:	01 97       	sbiw	r24, 0x01	; 1
 520:	69 f0       	breq	.+26     	; 0x53c <Tick_bluetooth+0x34>
 522:	0f c0       	rjmp	.+30     	; 0x542 <Tick_bluetooth+0x3a>
		
		case Bstart:
		if(!USART_HasReceived(0)){
 524:	80 e0       	ldi	r24, 0x00	; 0
 526:	15 de       	rcall	.-982    	; 0x152 <USART_HasReceived>
 528:	88 23       	and	r24, r24
 52a:	19 f4       	brne	.+6      	; 0x532 <Tick_bluetooth+0x2a>
			state = Bstart;
 52c:	1a 82       	std	Y+2, r1	; 0x02
 52e:	19 82       	std	Y+1, r1	; 0x01
		}else{
			state = receive;
		}
		//state = Bstart;
		
		break;
 530:	08 c0       	rjmp	.+16     	; 0x542 <Tick_bluetooth+0x3a>
		
		case Bstart:
		if(!USART_HasReceived(0)){
			state = Bstart;
		}else{
			state = receive;
 532:	81 e0       	ldi	r24, 0x01	; 1
 534:	90 e0       	ldi	r25, 0x00	; 0
 536:	9a 83       	std	Y+2, r25	; 0x02
 538:	89 83       	std	Y+1, r24	; 0x01
		}
		//state = Bstart;
		
		break;
 53a:	03 c0       	rjmp	.+6      	; 0x542 <Tick_bluetooth+0x3a>
		
		case receive:		
		state = Bstart;
 53c:	1a 82       	std	Y+2, r1	; 0x02
 53e:	19 82       	std	Y+1, r1	; 0x01
		break;
 540:	00 00       	nop
			
	}
	
	switch(state){		//actions
 542:	89 81       	ldd	r24, Y+1	; 0x01
 544:	9a 81       	ldd	r25, Y+2	; 0x02
 546:	00 97       	sbiw	r24, 0x00	; 0
 548:	79 f1       	breq	.+94     	; 0x5a8 <Tick_bluetooth+0xa0>
 54a:	01 97       	sbiw	r24, 0x01	; 1
 54c:	71 f5       	brne	.+92     	; 0x5aa <Tick_bluetooth+0xa2>
		case Bstart:
		break;
		
		case receive:
		Data_in = USART_Receive(0);						/* receive data from Blue-tooth device*/
 54e:	80 e0       	ldi	r24, 0x00	; 0
 550:	18 de       	rcall	.-976    	; 0x182 <USART_Receive>
 552:	80 93 1a 02 	sts	0x021A, r24	; 0x80021a <Data_in>
		if(Data_in =='2'){
 556:	80 91 1a 02 	lds	r24, 0x021A	; 0x80021a <Data_in>
 55a:	82 33       	cpi	r24, 0x32	; 50
 55c:	79 f4       	brne	.+30     	; 0x57c <Tick_bluetooth+0x74>
			if(bluetoothOutput < 120){
 55e:	80 91 1b 02 	lds	r24, 0x021B	; 0x80021b <bluetoothOutput>
 562:	88 37       	cpi	r24, 0x78	; 120
 564:	30 f4       	brcc	.+12     	; 0x572 <Tick_bluetooth+0x6a>
				bluetoothOutput++;
 566:	80 91 1b 02 	lds	r24, 0x021B	; 0x80021b <bluetoothOutput>
 56a:	8f 5f       	subi	r24, 0xFF	; 255
 56c:	80 93 1b 02 	sts	0x021B, r24	; 0x80021b <bluetoothOutput>
 570:	02 c0       	rjmp	.+4      	; 0x576 <Tick_bluetooth+0x6e>
			}else{
				bluetoothOutput = 0;
 572:	10 92 1b 02 	sts	0x021B, r1	; 0x80021b <bluetoothOutput>
			}			
			Data_in = 0x00;									/* Turn ON LED */
 576:	10 92 1a 02 	sts	0x021A, r1	; 0x80021a <Data_in>
			}else if(Data_in =='5'){
			bluetoothOutput = 0x05;									/* Turn OFF LED /
			}else{
			bluetoothOutput = 0x00;
		}*/
		break;
 57a:	17 c0       	rjmp	.+46     	; 0x5aa <Tick_bluetooth+0xa2>
				bluetoothOutput++;
			}else{
				bluetoothOutput = 0;
			}			
			Data_in = 0x00;									/* Turn ON LED */
		}else if(Data_in =='1'){
 57c:	80 91 1a 02 	lds	r24, 0x021A	; 0x80021a <Data_in>
 580:	81 33       	cpi	r24, 0x31	; 49
 582:	79 f4       	brne	.+30     	; 0x5a2 <Tick_bluetooth+0x9a>
			if(bluetoothOutput > 0){
 584:	80 91 1b 02 	lds	r24, 0x021B	; 0x80021b <bluetoothOutput>
 588:	88 23       	and	r24, r24
 58a:	31 f0       	breq	.+12     	; 0x598 <Tick_bluetooth+0x90>
				bluetoothOutput--;
 58c:	80 91 1b 02 	lds	r24, 0x021B	; 0x80021b <bluetoothOutput>
 590:	81 50       	subi	r24, 0x01	; 1
 592:	80 93 1b 02 	sts	0x021B, r24	; 0x80021b <bluetoothOutput>
 596:	02 c0       	rjmp	.+4      	; 0x59c <Tick_bluetooth+0x94>
			}else{
				bluetoothOutput = 0;
 598:	10 92 1b 02 	sts	0x021B, r1	; 0x80021b <bluetoothOutput>
			}
			Data_in = 0x00;
 59c:	10 92 1a 02 	sts	0x021A, r1	; 0x80021a <Data_in>
			}else if(Data_in =='5'){
			bluetoothOutput = 0x05;									/* Turn OFF LED /
			}else{
			bluetoothOutput = 0x00;
		}*/
		break;
 5a0:	04 c0       	rjmp	.+8      	; 0x5aa <Tick_bluetooth+0xa2>
			}else{
				bluetoothOutput = 0;
			}
			Data_in = 0x00;
		}else{
			bluetoothOutput = 0;
 5a2:	10 92 1b 02 	sts	0x021B, r1	; 0x80021b <bluetoothOutput>
			}else if(Data_in =='5'){
			bluetoothOutput = 0x05;									/* Turn OFF LED /
			}else{
			bluetoothOutput = 0x00;
		}*/
		break;
 5a6:	01 c0       	rjmp	.+2      	; 0x5aa <Tick_bluetooth+0xa2>
			
	}
	
	switch(state){		//actions
		case Bstart:
		break;
 5a8:	00 00       	nop
			}else{
			bluetoothOutput = 0x00;
		}*/
		break;
	}
	return state;
 5aa:	89 81       	ldd	r24, Y+1	; 0x01
 5ac:	9a 81       	ldd	r25, Y+2	; 0x02
}
 5ae:	0f 90       	pop	r0
 5b0:	0f 90       	pop	r0
 5b2:	df 91       	pop	r29
 5b4:	cf 91       	pop	r28
 5b6:	08 95       	ret

000005b8 <LED_Matrix>:

void LED_Matrix(){
 5b8:	cf 93       	push	r28
 5ba:	df 93       	push	r29
 5bc:	cd b7       	in	r28, 0x3d	; 61
 5be:	de b7       	in	r29, 0x3e	; 62
 5c0:	c5 57       	subi	r28, 0x75	; 117
 5c2:	d1 40       	sbci	r29, 0x01	; 1
 5c4:	0f b6       	in	r0, 0x3f	; 63
 5c6:	f8 94       	cli
 5c8:	de bf       	out	0x3e, r29	; 62
 5ca:	0f be       	out	0x3f, r0	; 63
 5cc:	cd bf       	out	0x3d, r28	; 61
	
	char PORT[8] = {1,2,4,8,16,32,64,128}; //pin values of a port 2^0,2^1,2^2……2^7
 5ce:	88 e0       	ldi	r24, 0x08	; 8
 5d0:	e4 e0       	ldi	r30, 0x04	; 4
 5d2:	f1 e0       	ldi	r31, 0x01	; 1
 5d4:	de 01       	movw	r26, r28
 5d6:	16 96       	adiw	r26, 0x06	; 6
 5d8:	01 90       	ld	r0, Z+
 5da:	0d 92       	st	X+, r0
 5dc:	8a 95       	dec	r24
 5de:	e1 f7       	brne	.-8      	; 0x5d8 <LED_Matrix+0x20>
		
	uint8_t l =0;
 5e0:	1a 82       	std	Y+2, r1	; 0x02
	
	char SCROLL_RED[] = {0b00000000,0b00000000,0b01000000,0b11000000,0b01000000,0b00000000,0b00000000,0b00001000,0b00000000,0b00001000,0b00101000,0b00001000,0b00000000,0b00000000,0b00000000,0b00000000,0b10000000,0b11000000,0b01000000,0b00000000,0b00000000,0b00000000,0b00000000,0b00000000,0b00000000,0b00000000,0b00000000,0b00000000,0b00000000,0b00000000,0b00000000,0b00000000,0b00000000,0b00001000,0b00000000,0b00000000,0b01000000,0b11000000,0b11100000,0b01000000,0b00000000,0b00000100,0b00000100,0b00010000,0b00010000,0b00010000,0b00010000,0b00000000,0b00000000,0b00000000,0b00000000,0b00000000,0b00010000,0b00010100,0b00000000,0b00000000,0b01001000,0b11001000,0b11000000,0b10000000,0b00001000,0b00000000,0b00101000,0b00000000,0b00001000,0b00000000,0b00000000,0b00100000,0b00100000,0b00000000,0b00000000,0b00101000,0b00100000,0b00000000,0b00000000,0b00000010,0b00000110,0b00001110,0b00000000,0b00001110,0b00000110,0b01000010,0b11000000,0b01000000,0b00000010,0b00000110,0b00001110,0b00001110,0b00000000,0b00001110,0b00000110,0b00000010,0b00000000,0b00000000,0b00000000,0b00000000,0b00000000,0b00001000,0b00001000,0b00000000,0b00000000,0b00000000,0b00000000,0b00000000,0b00000010,0b00000110,0b00001110,0b00011110,0b00011110,0b00000000,0b01000000,0b11100000,0b11100010,0b01000000,0b00000000,0b00001110,0b00111110,0b00011000,0b00111110,0b00001110};
 5e2:	88 e7       	ldi	r24, 0x78	; 120
 5e4:	ec e0       	ldi	r30, 0x0C	; 12
 5e6:	f1 e0       	ldi	r31, 0x01	; 1
 5e8:	de 01       	movw	r26, r28
 5ea:	1e 96       	adiw	r26, 0x0e	; 14
 5ec:	01 90       	ld	r0, Z+
 5ee:	0d 92       	st	X+, r0
 5f0:	8a 95       	dec	r24
 5f2:	e1 f7       	brne	.-8      	; 0x5ec <LED_Matrix+0x34>
	char SCROLL[] = {0b00000001,0b00000001,0b01000001,0b11000001,0b01000001,0b00000001,0b00000001,0b00001001,0b00000001,0b00001001,0b00101001,0b00001001,0b00000001,0b00000001,0b00000001,0b00000001,0b10000111,0b11000111,0b01000001,0b00000001,0b00000001,0b00001111,0b00001111,0b00000001,0b00000001,0b00001111,0b00001111,0b00000001,0b00000001,0b00001111,0b00001111,0b00000001,0b00000001,0b00001001,0b00000001,0b00000001,0b01000001,0b11000001,0b11100000,0b01000000,0b00000001,0b00000101,0b00000101,0b00010001,0b00010001,0b00010001,0b00010001,0b00000001,0b00000001,0b00000000,0b00000000,0b00000000,0b00010001,0b00010101,0b00000001,0b00000001,0b01001001,0b11001001,0b11000001,0b10000001,0b00001001,0b00000001,0b00101001,0b00000001,0b00001001,0b00000001,0b00000001,0b00100001,0b00100001,0b00000001,0b00000001,0b00101001,0b00100001,0b00000001,0b00000001,0b00000011,0b00000111,0b00001111,0b00000001,0b00001111,0b00000111,0b01000011,0b11000001,0b01000001,0b00000011,0b00000111,0b00001111,0b00001111,0b00000000,0b00001111,0b00000111,0b00000011,0b00000001,0b00000111,0b00000111,0b00000001,0b00000001,0b00001001,0b00001001,0b00000001,0b00000001,0b00000001,0b00000111,0b00000111,0b00000011,0b00000111,0b00001111,0b00011111,0b00011111,0b00000001,0b01000001,0b11100001,0b11100011,0b01000001,0b00000001,0b00000001,0b00000001,0b00000001,0b00000001,0b00000001};
 5f4:	ce 01       	movw	r24, r28
 5f6:	8a 57       	subi	r24, 0x7A	; 122
 5f8:	9f 4f       	sbci	r25, 0xFF	; 255
 5fa:	28 e7       	ldi	r18, 0x78	; 120
 5fc:	e4 e8       	ldi	r30, 0x84	; 132
 5fe:	f1 e0       	ldi	r31, 0x01	; 1
 600:	dc 01       	movw	r26, r24
 602:	01 90       	ld	r0, Z+
 604:	0d 92       	st	X+, r0
 606:	2a 95       	dec	r18
 608:	e1 f7       	brne	.-8      	; 0x602 <LED_Matrix+0x4a>
	char SCROLL_BLUE[] = {0b00000000,0b00000000,0b01000000,0b11000000,0b01000000,0b00000000,0b00000000,0b00000000,0b00000000,0b00000000,0b00000000,0b00000000,0b00000000,0b00000000,0b00000000,0b00000000,0b10000000,0b11000000,0b01000000,0b00000000,0b00000000,0b00000000,0b00000000,0b00000000,0b00000000,0b00000000,0b00000000,0b00000000,0b00000000,0b00000000,0b00000000,0b00000000,0b00000000,0b00000000,0b00000000,0b00000000,0b01000000,0b11000000,0b11100000,0b01000000,0b00000000,0b00000000,0b00000000,0b00000000,0b00000000,0b00000000,0b00000000,0b00000000,0b00000000,0b00000000,0b00000000,0b00000000,0b00000000,0b00000000,0b00000000,0b00000000,0b01000000,0b11000000,0b11000000,0b10000000,0b00000000,0b00000000,0b00000000,0b00000000,0b00000000,0b00000000,0b00000000,0b00000000,0b00000000,0b00000000,0b00000000,0b00000000,0b00000000,0b00000000,0b00000000,0b00000000,0b00000000,0b00000000,0b00000000,0b00000000,0b00000000,0b01000000,0b11000000,0b01000000,0b00000000,0b00000000,0b00000000,0b00000000,0b00000000,0b00000000,0b00000000,0b00000000,0b00000000,0b00000000,0b00000000,0b00000000,0b00000000,0b00000000,0b00000000,0b00000000,0b00000000,0b00000000,0b00000000,0b00000000,0b00000000,0b00000000,0b00000000,0b00000000,0b00000000,0b00000000,0b01000000,0b11100000,0b11100000,0b01000000,0b00000000,0b00000000,0b00000000,0b00000000,0b00000000,0b00000000};
 60a:	ce 01       	movw	r24, r28
 60c:	82 50       	subi	r24, 0x02	; 2
 60e:	9f 4f       	sbci	r25, 0xFF	; 255
 610:	28 e7       	ldi	r18, 0x78	; 120
 612:	fc 01       	movw	r30, r24
 614:	32 2f       	mov	r19, r18
 616:	11 92       	st	Z+, r1
 618:	3a 95       	dec	r19
 61a:	e9 f7       	brne	.-6      	; 0x616 <LED_Matrix+0x5e>
 61c:	ce 01       	movw	r24, r28
 61e:	82 50       	subi	r24, 0x02	; 2
 620:	9f 4f       	sbci	r25, 0xFF	; 255
 622:	20 e4       	ldi	r18, 0x40	; 64
 624:	fc 01       	movw	r30, r24
 626:	22 83       	std	Z+2, r18	; 0x02
 628:	ce 01       	movw	r24, r28
 62a:	82 50       	subi	r24, 0x02	; 2
 62c:	9f 4f       	sbci	r25, 0xFF	; 255
 62e:	20 ec       	ldi	r18, 0xC0	; 192
 630:	fc 01       	movw	r30, r24
 632:	23 83       	std	Z+3, r18	; 0x03
 634:	ce 01       	movw	r24, r28
 636:	82 50       	subi	r24, 0x02	; 2
 638:	9f 4f       	sbci	r25, 0xFF	; 255
 63a:	20 e4       	ldi	r18, 0x40	; 64
 63c:	fc 01       	movw	r30, r24
 63e:	24 83       	std	Z+4, r18	; 0x04
 640:	ce 01       	movw	r24, r28
 642:	82 50       	subi	r24, 0x02	; 2
 644:	9f 4f       	sbci	r25, 0xFF	; 255
 646:	20 e8       	ldi	r18, 0x80	; 128
 648:	fc 01       	movw	r30, r24
 64a:	20 8b       	std	Z+16, r18	; 0x10
 64c:	ce 01       	movw	r24, r28
 64e:	82 50       	subi	r24, 0x02	; 2
 650:	9f 4f       	sbci	r25, 0xFF	; 255
 652:	20 ec       	ldi	r18, 0xC0	; 192
 654:	fc 01       	movw	r30, r24
 656:	21 8b       	std	Z+17, r18	; 0x11
 658:	ce 01       	movw	r24, r28
 65a:	82 50       	subi	r24, 0x02	; 2
 65c:	9f 4f       	sbci	r25, 0xFF	; 255
 65e:	20 e4       	ldi	r18, 0x40	; 64
 660:	fc 01       	movw	r30, r24
 662:	22 8b       	std	Z+18, r18	; 0x12
 664:	ce 01       	movw	r24, r28
 666:	82 50       	subi	r24, 0x02	; 2
 668:	9f 4f       	sbci	r25, 0xFF	; 255
 66a:	20 e4       	ldi	r18, 0x40	; 64
 66c:	fc 01       	movw	r30, r24
 66e:	24 a3       	std	Z+36, r18	; 0x24
 670:	ce 01       	movw	r24, r28
 672:	82 50       	subi	r24, 0x02	; 2
 674:	9f 4f       	sbci	r25, 0xFF	; 255
 676:	20 ec       	ldi	r18, 0xC0	; 192
 678:	fc 01       	movw	r30, r24
 67a:	25 a3       	std	Z+37, r18	; 0x25
 67c:	ce 01       	movw	r24, r28
 67e:	82 50       	subi	r24, 0x02	; 2
 680:	9f 4f       	sbci	r25, 0xFF	; 255
 682:	20 ee       	ldi	r18, 0xE0	; 224
 684:	fc 01       	movw	r30, r24
 686:	26 a3       	std	Z+38, r18	; 0x26
 688:	ce 01       	movw	r24, r28
 68a:	82 50       	subi	r24, 0x02	; 2
 68c:	9f 4f       	sbci	r25, 0xFF	; 255
 68e:	20 e4       	ldi	r18, 0x40	; 64
 690:	fc 01       	movw	r30, r24
 692:	27 a3       	std	Z+39, r18	; 0x27
 694:	ce 01       	movw	r24, r28
 696:	82 50       	subi	r24, 0x02	; 2
 698:	9f 4f       	sbci	r25, 0xFF	; 255
 69a:	20 e4       	ldi	r18, 0x40	; 64
 69c:	fc 01       	movw	r30, r24
 69e:	20 af       	std	Z+56, r18	; 0x38
 6a0:	ce 01       	movw	r24, r28
 6a2:	82 50       	subi	r24, 0x02	; 2
 6a4:	9f 4f       	sbci	r25, 0xFF	; 255
 6a6:	20 ec       	ldi	r18, 0xC0	; 192
 6a8:	fc 01       	movw	r30, r24
 6aa:	21 af       	std	Z+57, r18	; 0x39
 6ac:	ce 01       	movw	r24, r28
 6ae:	82 50       	subi	r24, 0x02	; 2
 6b0:	9f 4f       	sbci	r25, 0xFF	; 255
 6b2:	20 ec       	ldi	r18, 0xC0	; 192
 6b4:	fc 01       	movw	r30, r24
 6b6:	22 af       	std	Z+58, r18	; 0x3a
 6b8:	ce 01       	movw	r24, r28
 6ba:	82 50       	subi	r24, 0x02	; 2
 6bc:	9f 4f       	sbci	r25, 0xFF	; 255
 6be:	20 e8       	ldi	r18, 0x80	; 128
 6c0:	fc 01       	movw	r30, r24
 6c2:	23 af       	std	Z+59, r18	; 0x3b
 6c4:	ce 01       	movw	r24, r28
 6c6:	82 50       	subi	r24, 0x02	; 2
 6c8:	9f 4f       	sbci	r25, 0xFF	; 255
 6ca:	8f 5a       	subi	r24, 0xAF	; 175
 6cc:	9f 4f       	sbci	r25, 0xFF	; 255
 6ce:	20 e4       	ldi	r18, 0x40	; 64
 6d0:	fc 01       	movw	r30, r24
 6d2:	20 83       	st	Z, r18
 6d4:	ce 01       	movw	r24, r28
 6d6:	82 50       	subi	r24, 0x02	; 2
 6d8:	9f 4f       	sbci	r25, 0xFF	; 255
 6da:	8e 5a       	subi	r24, 0xAE	; 174
 6dc:	9f 4f       	sbci	r25, 0xFF	; 255
 6de:	20 ec       	ldi	r18, 0xC0	; 192
 6e0:	fc 01       	movw	r30, r24
 6e2:	20 83       	st	Z, r18
 6e4:	ce 01       	movw	r24, r28
 6e6:	82 50       	subi	r24, 0x02	; 2
 6e8:	9f 4f       	sbci	r25, 0xFF	; 255
 6ea:	8d 5a       	subi	r24, 0xAD	; 173
 6ec:	9f 4f       	sbci	r25, 0xFF	; 255
 6ee:	20 e4       	ldi	r18, 0x40	; 64
 6f0:	fc 01       	movw	r30, r24
 6f2:	20 83       	st	Z, r18
 6f4:	ce 01       	movw	r24, r28
 6f6:	82 50       	subi	r24, 0x02	; 2
 6f8:	9f 4f       	sbci	r25, 0xFF	; 255
 6fa:	82 59       	subi	r24, 0x92	; 146
 6fc:	9f 4f       	sbci	r25, 0xFF	; 255
 6fe:	20 e4       	ldi	r18, 0x40	; 64
 700:	fc 01       	movw	r30, r24
 702:	20 83       	st	Z, r18
 704:	ce 01       	movw	r24, r28
 706:	82 50       	subi	r24, 0x02	; 2
 708:	9f 4f       	sbci	r25, 0xFF	; 255
 70a:	81 59       	subi	r24, 0x91	; 145
 70c:	9f 4f       	sbci	r25, 0xFF	; 255
 70e:	20 ee       	ldi	r18, 0xE0	; 224
 710:	fc 01       	movw	r30, r24
 712:	20 83       	st	Z, r18
 714:	ce 01       	movw	r24, r28
 716:	82 50       	subi	r24, 0x02	; 2
 718:	9f 4f       	sbci	r25, 0xFF	; 255
 71a:	80 59       	subi	r24, 0x90	; 144
 71c:	9f 4f       	sbci	r25, 0xFF	; 255
 71e:	20 ee       	ldi	r18, 0xE0	; 224
 720:	fc 01       	movw	r30, r24
 722:	20 83       	st	Z, r18
 724:	ce 01       	movw	r24, r28
 726:	82 50       	subi	r24, 0x02	; 2
 728:	9f 4f       	sbci	r25, 0xFF	; 255
 72a:	8f 58       	subi	r24, 0x8F	; 143
 72c:	9f 4f       	sbci	r25, 0xFF	; 255
 72e:	20 e4       	ldi	r18, 0x40	; 64
 730:	fc 01       	movw	r30, r24
 732:	20 83       	st	Z, r18

	//char CHARAC[] = { 0b00000010, 0b00000000, 0b00000000, 0b00000000, 0b00000000, 0b00000000, 0b00000000, 0b00000000 };
	
	
		if(i < 8){
 734:	80 91 fc 01 	lds	r24, 0x01FC	; 0x8001fc <__data_end>
 738:	90 91 fd 01 	lds	r25, 0x01FD	; 0x8001fd <__data_end+0x1>
 73c:	08 97       	sbiw	r24, 0x08	; 8
 73e:	0c f0       	brlt	.+2      	; 0x742 <LED_Matrix+0x18a>
 740:	a2 c0       	rjmp	.+324    	; 0x886 <LED_Matrix+0x2ce>
			PORTC = PORT[i];
 742:	88 e2       	ldi	r24, 0x28	; 40
 744:	90 e0       	ldi	r25, 0x00	; 0
 746:	20 91 fc 01 	lds	r18, 0x01FC	; 0x8001fc <__data_end>
 74a:	30 91 fd 01 	lds	r19, 0x01FD	; 0x8001fd <__data_end+0x1>
 74e:	ae 01       	movw	r20, r28
 750:	4a 5f       	subi	r20, 0xFA	; 250
 752:	5f 4f       	sbci	r21, 0xFF	; 255
 754:	24 0f       	add	r18, r20
 756:	35 1f       	adc	r19, r21
 758:	f9 01       	movw	r30, r18
 75a:	20 81       	ld	r18, Z
 75c:	fc 01       	movw	r30, r24
 75e:	20 83       	st	Z, r18
			
			char pos = 0;
 760:	19 82       	std	Y+1, r1	; 0x01
			
			if(i == 1){
 762:	80 91 fc 01 	lds	r24, 0x01FC	; 0x8001fc <__data_end>
 766:	90 91 fd 01 	lds	r25, 0x01FD	; 0x8001fd <__data_end+0x1>
 76a:	01 97       	sbiw	r24, 0x01	; 1
 76c:	19 f4       	brne	.+6      	; 0x774 <LED_Matrix+0x1bc>
				pos = 0b00000010;
 76e:	82 e0       	ldi	r24, 0x02	; 2
 770:	89 83       	std	Y+1, r24	; 0x01
 772:	01 c0       	rjmp	.+2      	; 0x776 <LED_Matrix+0x1be>
			}else{
				pos = 0b00000000;
 774:	19 82       	std	Y+1, r1	; 0x01
			}
			
			
			char temp = SCROLL[i+bluetoothOutput] | SCROLL_RED[i+bluetoothOutput] | SCROLL_BLUE[i+bluetoothOutput];
 776:	80 91 1b 02 	lds	r24, 0x021B	; 0x80021b <bluetoothOutput>
 77a:	28 2f       	mov	r18, r24
 77c:	30 e0       	ldi	r19, 0x00	; 0
 77e:	80 91 fc 01 	lds	r24, 0x01FC	; 0x8001fc <__data_end>
 782:	90 91 fd 01 	lds	r25, 0x01FD	; 0x8001fd <__data_end+0x1>
 786:	82 0f       	add	r24, r18
 788:	93 1f       	adc	r25, r19
 78a:	9e 01       	movw	r18, r28
 78c:	2a 57       	subi	r18, 0x7A	; 122
 78e:	3f 4f       	sbci	r19, 0xFF	; 255
 790:	82 0f       	add	r24, r18
 792:	93 1f       	adc	r25, r19
 794:	fc 01       	movw	r30, r24
 796:	40 81       	ld	r20, Z
 798:	80 91 1b 02 	lds	r24, 0x021B	; 0x80021b <bluetoothOutput>
 79c:	28 2f       	mov	r18, r24
 79e:	30 e0       	ldi	r19, 0x00	; 0
 7a0:	80 91 fc 01 	lds	r24, 0x01FC	; 0x8001fc <__data_end>
 7a4:	90 91 fd 01 	lds	r25, 0x01FD	; 0x8001fd <__data_end+0x1>
 7a8:	82 0f       	add	r24, r18
 7aa:	93 1f       	adc	r25, r19
 7ac:	9e 01       	movw	r18, r28
 7ae:	22 5f       	subi	r18, 0xF2	; 242
 7b0:	3f 4f       	sbci	r19, 0xFF	; 255
 7b2:	82 0f       	add	r24, r18
 7b4:	93 1f       	adc	r25, r19
 7b6:	fc 01       	movw	r30, r24
 7b8:	80 81       	ld	r24, Z
 7ba:	48 2b       	or	r20, r24
 7bc:	80 91 1b 02 	lds	r24, 0x021B	; 0x80021b <bluetoothOutput>
 7c0:	28 2f       	mov	r18, r24
 7c2:	30 e0       	ldi	r19, 0x00	; 0
 7c4:	80 91 fc 01 	lds	r24, 0x01FC	; 0x8001fc <__data_end>
 7c8:	90 91 fd 01 	lds	r25, 0x01FD	; 0x8001fd <__data_end+0x1>
 7cc:	82 0f       	add	r24, r18
 7ce:	93 1f       	adc	r25, r19
 7d0:	9e 01       	movw	r18, r28
 7d2:	22 50       	subi	r18, 0x02	; 2
 7d4:	3f 4f       	sbci	r19, 0xFF	; 255
 7d6:	82 0f       	add	r24, r18
 7d8:	93 1f       	adc	r25, r19
 7da:	fc 01       	movw	r30, r24
 7dc:	80 81       	ld	r24, Z
 7de:	84 2b       	or	r24, r20
 7e0:	8b 83       	std	Y+3, r24	; 0x03
						
			char temp1;
			
			if(GetBit(temp, 1)){
 7e2:	61 e0       	ldi	r22, 0x01	; 1
 7e4:	8b 81       	ldd	r24, Y+3	; 0x03
 7e6:	72 de       	rcall	.-796    	; 0x4cc <GetBit>
 7e8:	88 23       	and	r24, r24
 7ea:	b9 f1       	breq	.+110    	; 0x85a <LED_Matrix+0x2a2>
				if(i == 1){
 7ec:	80 91 fc 01 	lds	r24, 0x01FC	; 0x8001fc <__data_end>
 7f0:	90 91 fd 01 	lds	r25, 0x01FD	; 0x8001fd <__data_end+0x1>
 7f4:	01 97       	sbiw	r24, 0x01	; 1
 7f6:	81 f5       	brne	.+96     	; 0x858 <LED_Matrix+0x2a0>
					pos = 0b00000100;
 7f8:	84 e0       	ldi	r24, 0x04	; 4
 7fa:	89 83       	std	Y+1, r24	; 0x01
					
					if(GetBit(temp, 2)){
 7fc:	62 e0       	ldi	r22, 0x02	; 2
 7fe:	8b 81       	ldd	r24, Y+3	; 0x03
 800:	65 de       	rcall	.-822    	; 0x4cc <GetBit>
 802:	88 23       	and	r24, r24
 804:	51 f1       	breq	.+84     	; 0x85a <LED_Matrix+0x2a2>
						if(i == 1){
 806:	80 91 fc 01 	lds	r24, 0x01FC	; 0x8001fc <__data_end>
 80a:	90 91 fd 01 	lds	r25, 0x01FD	; 0x8001fd <__data_end+0x1>
 80e:	01 97       	sbiw	r24, 0x01	; 1
 810:	09 f5       	brne	.+66     	; 0x854 <LED_Matrix+0x29c>
							pos = 0b00001000;
 812:	88 e0       	ldi	r24, 0x08	; 8
 814:	89 83       	std	Y+1, r24	; 0x01
							
							if(GetBit(temp, 3)){
 816:	63 e0       	ldi	r22, 0x03	; 3
 818:	8b 81       	ldd	r24, Y+3	; 0x03
 81a:	58 de       	rcall	.-848    	; 0x4cc <GetBit>
 81c:	88 23       	and	r24, r24
 81e:	e9 f0       	breq	.+58     	; 0x85a <LED_Matrix+0x2a2>
								if(i == 1){
 820:	80 91 fc 01 	lds	r24, 0x01FC	; 0x8001fc <__data_end>
 824:	90 91 fd 01 	lds	r25, 0x01FD	; 0x8001fd <__data_end+0x1>
 828:	01 97       	sbiw	r24, 0x01	; 1
 82a:	91 f4       	brne	.+36     	; 0x850 <LED_Matrix+0x298>
									pos = 0b00010000;
 82c:	80 e1       	ldi	r24, 0x10	; 16
									
									if(GetBit(temp, 4)){
 82e:	89 83       	std	Y+1, r24	; 0x01
 830:	64 e0       	ldi	r22, 0x04	; 4
 832:	8b 81       	ldd	r24, Y+3	; 0x03
 834:	4b de       	rcall	.-874    	; 0x4cc <GetBit>
 836:	88 23       	and	r24, r24
 838:	81 f0       	breq	.+32     	; 0x85a <LED_Matrix+0x2a2>
										if(i == 1){
 83a:	80 91 fc 01 	lds	r24, 0x01FC	; 0x8001fc <__data_end>
 83e:	90 91 fd 01 	lds	r25, 0x01FD	; 0x8001fd <__data_end+0x1>
 842:	01 97       	sbiw	r24, 0x01	; 1
 844:	19 f4       	brne	.+6      	; 0x84c <LED_Matrix+0x294>
											pos = 0b00100000;
 846:	80 e2       	ldi	r24, 0x20	; 32
 848:	89 83       	std	Y+1, r24	; 0x01
 84a:	07 c0       	rjmp	.+14     	; 0x85a <LED_Matrix+0x2a2>
										}else{
											pos = 0b00000000;
 84c:	19 82       	std	Y+1, r1	; 0x01
 84e:	05 c0       	rjmp	.+10     	; 0x85a <LED_Matrix+0x2a2>
										}
									}
									
								}else{
									pos = 0b00000000;
 850:	19 82       	std	Y+1, r1	; 0x01
 852:	03 c0       	rjmp	.+6      	; 0x85a <LED_Matrix+0x2a2>
								}
							}
							
						}else{
							pos = 0b00000000;
 854:	19 82       	std	Y+1, r1	; 0x01
 856:	01 c0       	rjmp	.+2      	; 0x85a <LED_Matrix+0x2a2>
						}
					}
					
				}else{
					pos = 0b00000000;
 858:	19 82       	std	Y+1, r1	; 0x01
				}
			}
			
			temp1 = temp | pos;
 85a:	9b 81       	ldd	r25, Y+3	; 0x03
 85c:	89 81       	ldd	r24, Y+1	; 0x01
 85e:	89 2b       	or	r24, r25
 860:	8c 83       	std	Y+4, r24	; 0x04
			char temp2 = ~temp1;
 862:	8c 81       	ldd	r24, Y+4	; 0x04
 864:	80 95       	com	r24
 866:	8d 83       	std	Y+5, r24	; 0x05
			PORTA = temp2;
 868:	82 e2       	ldi	r24, 0x22	; 34
 86a:	90 e0       	ldi	r25, 0x00	; 0
 86c:	2d 81       	ldd	r18, Y+5	; 0x05
 86e:	fc 01       	movw	r30, r24
 870:	20 83       	st	Z, r18
			i++;
 872:	80 91 fc 01 	lds	r24, 0x01FC	; 0x8001fc <__data_end>
 876:	90 91 fd 01 	lds	r25, 0x01FD	; 0x8001fd <__data_end+0x1>
 87a:	01 96       	adiw	r24, 0x01	; 1
 87c:	90 93 fd 01 	sts	0x01FD, r25	; 0x8001fd <__data_end+0x1>
 880:	80 93 fc 01 	sts	0x01FC, r24	; 0x8001fc <__data_end>
			
		}else{
			i = 0;
		}
	
}
 884:	04 c0       	rjmp	.+8      	; 0x88e <LED_Matrix+0x2d6>
			char temp2 = ~temp1;
			PORTA = temp2;
			i++;
			
		}else{
			i = 0;
 886:	10 92 fd 01 	sts	0x01FD, r1	; 0x8001fd <__data_end+0x1>
 88a:	10 92 fc 01 	sts	0x01FC, r1	; 0x8001fc <__data_end>
		}
	
}
 88e:	00 00       	nop
 890:	cb 58       	subi	r28, 0x8B	; 139
 892:	de 4f       	sbci	r29, 0xFE	; 254
 894:	0f b6       	in	r0, 0x3f	; 63
 896:	f8 94       	cli
 898:	de bf       	out	0x3e, r29	; 62
 89a:	0f be       	out	0x3f, r0	; 63
 89c:	cd bf       	out	0x3d, r28	; 61
 89e:	df 91       	pop	r29
 8a0:	cf 91       	pop	r28
 8a2:	08 95       	ret

000008a4 <Tick_stuff>:

//=================random_SM=================//
enum stuff{start, displayScreen};
int Tick_stuff (int state){
 8a4:	cf 93       	push	r28
 8a6:	df 93       	push	r29
 8a8:	00 d0       	rcall	.+0      	; 0x8aa <Tick_stuff+0x6>
 8aa:	cd b7       	in	r28, 0x3d	; 61
 8ac:	de b7       	in	r29, 0x3e	; 62
 8ae:	9a 83       	std	Y+2, r25	; 0x02
 8b0:	89 83       	std	Y+1, r24	; 0x01
	
	
	switch(state){
 8b2:	89 81       	ldd	r24, Y+1	; 0x01
 8b4:	9a 81       	ldd	r25, Y+2	; 0x02
 8b6:	00 97       	sbiw	r24, 0x00	; 0
 8b8:	19 f0       	breq	.+6      	; 0x8c0 <Tick_stuff+0x1c>
 8ba:	01 97       	sbiw	r24, 0x01	; 1
 8bc:	31 f0       	breq	.+12     	; 0x8ca <Tick_stuff+0x26>
 8be:	0a c0       	rjmp	.+20     	; 0x8d4 <Tick_stuff+0x30>
		case start:
		state = displayScreen;
 8c0:	81 e0       	ldi	r24, 0x01	; 1
 8c2:	90 e0       	ldi	r25, 0x00	; 0
 8c4:	9a 83       	std	Y+2, r25	; 0x02
 8c6:	89 83       	std	Y+1, r24	; 0x01
		break;
 8c8:	08 c0       	rjmp	.+16     	; 0x8da <Tick_stuff+0x36>
		
		case displayScreen:
		state = displayScreen;
 8ca:	81 e0       	ldi	r24, 0x01	; 1
 8cc:	90 e0       	ldi	r25, 0x00	; 0
 8ce:	9a 83       	std	Y+2, r25	; 0x02
 8d0:	89 83       	std	Y+1, r24	; 0x01
		break;
 8d2:	03 c0       	rjmp	.+6      	; 0x8da <Tick_stuff+0x36>
				
		default:
		state = start;
 8d4:	1a 82       	std	Y+2, r1	; 0x02
 8d6:	19 82       	std	Y+1, r1	; 0x01
		break;
 8d8:	00 00       	nop
	}
	
	switch(state){
 8da:	89 81       	ldd	r24, Y+1	; 0x01
 8dc:	9a 81       	ldd	r25, Y+2	; 0x02
 8de:	00 97       	sbiw	r24, 0x00	; 0
 8e0:	21 f0       	breq	.+8      	; 0x8ea <Tick_stuff+0x46>
 8e2:	01 97       	sbiw	r24, 0x01	; 1
 8e4:	19 f4       	brne	.+6      	; 0x8ec <Tick_stuff+0x48>
		case start:
		break;
		
		case displayScreen:
		LED_Matrix();
 8e6:	68 de       	rcall	.-816    	; 0x5b8 <LED_Matrix>
		break;
 8e8:	01 c0       	rjmp	.+2      	; 0x8ec <Tick_stuff+0x48>
		break;
	}
	
	switch(state){
		case start:
		break;
 8ea:	00 00       	nop
		LED_Matrix();
		break;
		
		
	}
	return state;
 8ec:	89 81       	ldd	r24, Y+1	; 0x01
 8ee:	9a 81       	ldd	r25, Y+2	; 0x02
}
 8f0:	0f 90       	pop	r0
 8f2:	0f 90       	pop	r0
 8f4:	df 91       	pop	r29
 8f6:	cf 91       	pop	r28
 8f8:	08 95       	ret

000008fa <main>:
	}
	return state;
}*/

int main(void)
{
 8fa:	cf 93       	push	r28
 8fc:	df 93       	push	r29
 8fe:	1f 92       	push	r1
 900:	cd b7       	in	r28, 0x3d	; 61
 902:	de b7       	in	r29, 0x3e	; 62
	//=========Initializing task on structure===========//
	unsigned char i=0;
 904:	19 82       	std	Y+1, r1	; 0x01
	tasks[i].state = Bstart;
 906:	89 81       	ldd	r24, Y+1	; 0x01
 908:	28 2f       	mov	r18, r24
 90a:	30 e0       	ldi	r19, 0x00	; 0
 90c:	c9 01       	movw	r24, r18
 90e:	88 0f       	add	r24, r24
 910:	99 1f       	adc	r25, r25
 912:	82 0f       	add	r24, r18
 914:	93 1f       	adc	r25, r19
 916:	88 0f       	add	r24, r24
 918:	99 1f       	adc	r25, r25
 91a:	88 0f       	add	r24, r24
 91c:	99 1f       	adc	r25, r25
 91e:	8e 5f       	subi	r24, 0xFE	; 254
 920:	9d 4f       	sbci	r25, 0xFD	; 253
 922:	fc 01       	movw	r30, r24
 924:	11 82       	std	Z+1, r1	; 0x01
 926:	10 82       	st	Z, r1
	tasks[i].period = Keypadperiod;
 928:	89 81       	ldd	r24, Y+1	; 0x01
 92a:	68 2f       	mov	r22, r24
 92c:	70 e0       	ldi	r23, 0x00	; 0
 92e:	22 e0       	ldi	r18, 0x02	; 2
 930:	30 e0       	ldi	r19, 0x00	; 0
 932:	40 e0       	ldi	r20, 0x00	; 0
 934:	50 e0       	ldi	r21, 0x00	; 0
 936:	cb 01       	movw	r24, r22
 938:	88 0f       	add	r24, r24
 93a:	99 1f       	adc	r25, r25
 93c:	86 0f       	add	r24, r22
 93e:	97 1f       	adc	r25, r23
 940:	88 0f       	add	r24, r24
 942:	99 1f       	adc	r25, r25
 944:	88 0f       	add	r24, r24
 946:	99 1f       	adc	r25, r25
 948:	8c 5f       	subi	r24, 0xFC	; 252
 94a:	9d 4f       	sbci	r25, 0xFD	; 253
 94c:	fc 01       	movw	r30, r24
 94e:	20 83       	st	Z, r18
 950:	31 83       	std	Z+1, r19	; 0x01
 952:	42 83       	std	Z+2, r20	; 0x02
 954:	53 83       	std	Z+3, r21	; 0x03
	tasks[i].elapsedTime = tasks[i].period;
 956:	89 81       	ldd	r24, Y+1	; 0x01
 958:	68 2f       	mov	r22, r24
 95a:	70 e0       	ldi	r23, 0x00	; 0
 95c:	89 81       	ldd	r24, Y+1	; 0x01
 95e:	28 2f       	mov	r18, r24
 960:	30 e0       	ldi	r19, 0x00	; 0
 962:	c9 01       	movw	r24, r18
 964:	88 0f       	add	r24, r24
 966:	99 1f       	adc	r25, r25
 968:	82 0f       	add	r24, r18
 96a:	93 1f       	adc	r25, r19
 96c:	88 0f       	add	r24, r24
 96e:	99 1f       	adc	r25, r25
 970:	88 0f       	add	r24, r24
 972:	99 1f       	adc	r25, r25
 974:	8c 5f       	subi	r24, 0xFC	; 252
 976:	9d 4f       	sbci	r25, 0xFD	; 253
 978:	fc 01       	movw	r30, r24
 97a:	20 81       	ld	r18, Z
 97c:	31 81       	ldd	r19, Z+1	; 0x01
 97e:	42 81       	ldd	r20, Z+2	; 0x02
 980:	53 81       	ldd	r21, Z+3	; 0x03
 982:	cb 01       	movw	r24, r22
 984:	88 0f       	add	r24, r24
 986:	99 1f       	adc	r25, r25
 988:	86 0f       	add	r24, r22
 98a:	97 1f       	adc	r25, r23
 98c:	88 0f       	add	r24, r24
 98e:	99 1f       	adc	r25, r25
 990:	88 0f       	add	r24, r24
 992:	99 1f       	adc	r25, r25
 994:	88 5f       	subi	r24, 0xF8	; 248
 996:	9d 4f       	sbci	r25, 0xFD	; 253
 998:	fc 01       	movw	r30, r24
 99a:	20 83       	st	Z, r18
 99c:	31 83       	std	Z+1, r19	; 0x01
 99e:	42 83       	std	Z+2, r20	; 0x02
 9a0:	53 83       	std	Z+3, r21	; 0x03
	tasks[i].TickFct = &Tick_bluetooth;
 9a2:	89 81       	ldd	r24, Y+1	; 0x01
 9a4:	28 2f       	mov	r18, r24
 9a6:	30 e0       	ldi	r19, 0x00	; 0
 9a8:	c9 01       	movw	r24, r18
 9aa:	88 0f       	add	r24, r24
 9ac:	99 1f       	adc	r25, r25
 9ae:	82 0f       	add	r24, r18
 9b0:	93 1f       	adc	r25, r19
 9b2:	88 0f       	add	r24, r24
 9b4:	99 1f       	adc	r25, r25
 9b6:	88 0f       	add	r24, r24
 9b8:	99 1f       	adc	r25, r25
 9ba:	84 5f       	subi	r24, 0xF4	; 244
 9bc:	9d 4f       	sbci	r25, 0xFD	; 253
 9be:	24 e8       	ldi	r18, 0x84	; 132
 9c0:	32 e0       	ldi	r19, 0x02	; 2
 9c2:	fc 01       	movw	r30, r24
 9c4:	31 83       	std	Z+1, r19	; 0x01
 9c6:	20 83       	st	Z, r18
	i++;
 9c8:	89 81       	ldd	r24, Y+1	; 0x01
 9ca:	8f 5f       	subi	r24, 0xFF	; 255
 9cc:	89 83       	std	Y+1, r24	; 0x01
	tasks[i].state = start;
 9ce:	89 81       	ldd	r24, Y+1	; 0x01
 9d0:	28 2f       	mov	r18, r24
 9d2:	30 e0       	ldi	r19, 0x00	; 0
 9d4:	c9 01       	movw	r24, r18
 9d6:	88 0f       	add	r24, r24
 9d8:	99 1f       	adc	r25, r25
 9da:	82 0f       	add	r24, r18
 9dc:	93 1f       	adc	r25, r19
 9de:	88 0f       	add	r24, r24
 9e0:	99 1f       	adc	r25, r25
 9e2:	88 0f       	add	r24, r24
 9e4:	99 1f       	adc	r25, r25
 9e6:	8e 5f       	subi	r24, 0xFE	; 254
 9e8:	9d 4f       	sbci	r25, 0xFD	; 253
 9ea:	fc 01       	movw	r30, r24
 9ec:	11 82       	std	Z+1, r1	; 0x01
 9ee:	10 82       	st	Z, r1
	tasks[i].period = stuffperiod;
 9f0:	89 81       	ldd	r24, Y+1	; 0x01
 9f2:	68 2f       	mov	r22, r24
 9f4:	70 e0       	ldi	r23, 0x00	; 0
 9f6:	22 e0       	ldi	r18, 0x02	; 2
 9f8:	30 e0       	ldi	r19, 0x00	; 0
 9fa:	40 e0       	ldi	r20, 0x00	; 0
 9fc:	50 e0       	ldi	r21, 0x00	; 0
 9fe:	cb 01       	movw	r24, r22
 a00:	88 0f       	add	r24, r24
 a02:	99 1f       	adc	r25, r25
 a04:	86 0f       	add	r24, r22
 a06:	97 1f       	adc	r25, r23
 a08:	88 0f       	add	r24, r24
 a0a:	99 1f       	adc	r25, r25
 a0c:	88 0f       	add	r24, r24
 a0e:	99 1f       	adc	r25, r25
 a10:	8c 5f       	subi	r24, 0xFC	; 252
 a12:	9d 4f       	sbci	r25, 0xFD	; 253
 a14:	fc 01       	movw	r30, r24
 a16:	20 83       	st	Z, r18
 a18:	31 83       	std	Z+1, r19	; 0x01
 a1a:	42 83       	std	Z+2, r20	; 0x02
 a1c:	53 83       	std	Z+3, r21	; 0x03
	tasks[i].elapsedTime = tasks[i].period;
 a1e:	89 81       	ldd	r24, Y+1	; 0x01
 a20:	68 2f       	mov	r22, r24
 a22:	70 e0       	ldi	r23, 0x00	; 0
 a24:	89 81       	ldd	r24, Y+1	; 0x01
 a26:	28 2f       	mov	r18, r24
 a28:	30 e0       	ldi	r19, 0x00	; 0
 a2a:	c9 01       	movw	r24, r18
 a2c:	88 0f       	add	r24, r24
 a2e:	99 1f       	adc	r25, r25
 a30:	82 0f       	add	r24, r18
 a32:	93 1f       	adc	r25, r19
 a34:	88 0f       	add	r24, r24
 a36:	99 1f       	adc	r25, r25
 a38:	88 0f       	add	r24, r24
 a3a:	99 1f       	adc	r25, r25
 a3c:	8c 5f       	subi	r24, 0xFC	; 252
 a3e:	9d 4f       	sbci	r25, 0xFD	; 253
 a40:	fc 01       	movw	r30, r24
 a42:	20 81       	ld	r18, Z
 a44:	31 81       	ldd	r19, Z+1	; 0x01
 a46:	42 81       	ldd	r20, Z+2	; 0x02
 a48:	53 81       	ldd	r21, Z+3	; 0x03
 a4a:	cb 01       	movw	r24, r22
 a4c:	88 0f       	add	r24, r24
 a4e:	99 1f       	adc	r25, r25
 a50:	86 0f       	add	r24, r22
 a52:	97 1f       	adc	r25, r23
 a54:	88 0f       	add	r24, r24
 a56:	99 1f       	adc	r25, r25
 a58:	88 0f       	add	r24, r24
 a5a:	99 1f       	adc	r25, r25
 a5c:	88 5f       	subi	r24, 0xF8	; 248
 a5e:	9d 4f       	sbci	r25, 0xFD	; 253
 a60:	fc 01       	movw	r30, r24
 a62:	20 83       	st	Z, r18
 a64:	31 83       	std	Z+1, r19	; 0x01
 a66:	42 83       	std	Z+2, r20	; 0x02
 a68:	53 83       	std	Z+3, r21	; 0x03
	tasks[i].TickFct = &Tick_stuff;
 a6a:	89 81       	ldd	r24, Y+1	; 0x01
 a6c:	28 2f       	mov	r18, r24
 a6e:	30 e0       	ldi	r19, 0x00	; 0
 a70:	c9 01       	movw	r24, r18
 a72:	88 0f       	add	r24, r24
 a74:	99 1f       	adc	r25, r25
 a76:	82 0f       	add	r24, r18
 a78:	93 1f       	adc	r25, r19
 a7a:	88 0f       	add	r24, r24
 a7c:	99 1f       	adc	r25, r25
 a7e:	88 0f       	add	r24, r24
 a80:	99 1f       	adc	r25, r25
 a82:	84 5f       	subi	r24, 0xF4	; 244
 a84:	9d 4f       	sbci	r25, 0xFD	; 253
 a86:	22 e5       	ldi	r18, 0x52	; 82
 a88:	34 e0       	ldi	r19, 0x04	; 4
 a8a:	fc 01       	movw	r30, r24
 a8c:	31 83       	std	Z+1, r19	; 0x01
 a8e:	20 83       	st	Z, r18
	tasks[i].TickFct = &Tick_output;*/
	
	//=========Setting Ports===========//
	//DDRC = 0xFF; PORTC = 0x00; // LCD data lines
	
	DDRA = 0xFF; //PORTA as output
 a90:	81 e2       	ldi	r24, 0x21	; 33
 a92:	90 e0       	ldi	r25, 0x00	; 0
 a94:	2f ef       	ldi	r18, 0xFF	; 255
 a96:	fc 01       	movw	r30, r24
 a98:	20 83       	st	Z, r18
	DDRC = 0xFF; //PORTC as output
 a9a:	87 e2       	ldi	r24, 0x27	; 39
 a9c:	90 e0       	ldi	r25, 0x00	; 0
 a9e:	2f ef       	ldi	r18, 0xFF	; 255
 aa0:	fc 01       	movw	r30, r24
 aa2:	20 83       	st	Z, r18

	
	//=========Timing===========//
	TimerSet(tasksPeriodGCD);
 aa4:	8a e0       	ldi	r24, 0x0A	; 10
 aa6:	90 e0       	ldi	r25, 0x00	; 0
 aa8:	a0 e0       	ldi	r26, 0x00	; 0
 aaa:	b0 e0       	ldi	r27, 0x00	; 0
 aac:	bc 01       	movw	r22, r24
 aae:	cd 01       	movw	r24, r26
 ab0:	df dc       	rcall	.-1602   	; 0x470 <TimerSet>
	TimerOn();
 ab2:	8b db       	rcall	.-2282   	; 0x1ca <TimerOn>
	
	//=========USART===========//
	initUSART(0);
 ab4:	80 e0       	ldi	r24, 0x00	; 0
 ab6:	08 db       	rcall	.-2544   	; 0xc8 <initUSART>
 ab8:	ff cf       	rjmp	.-2      	; 0xab8 <main+0x1be>

00000aba <_exit>:
	
	while(1) {
		
	}
 aba:	f8 94       	cli

00000abc <__stop_program>:
 abc:	ff cf       	rjmp	.-2      	; 0xabc <__stop_program>
