
main_logic.elf:     file format elf32-avr

Sections:
Idx Name          Size      VMA       LMA       File off  Algn
  0 .data         00000622  00800100  00003022  000030b6  2**0
                  CONTENTS, ALLOC, LOAD, DATA
  1 .text         00003022  00000000  00000000  00000094  2**1
                  CONTENTS, ALLOC, LOAD, READONLY, CODE
  2 .bss          0000005d  00800722  00800722  000036d8  2**0
                  ALLOC
  3 .comment      00000030  00000000  00000000  000036d8  2**0
                  CONTENTS, READONLY
  4 .note.gnu.avr.deviceinfo 00000040  00000000  00000000  00003708  2**2
                  CONTENTS, READONLY
  5 .debug_aranges 00000160  00000000  00000000  00003748  2**3
                  CONTENTS, READONLY, DEBUGGING
  6 .debug_info   00001c0f  00000000  00000000  000038a8  2**0
                  CONTENTS, READONLY, DEBUGGING
  7 .debug_abbrev 00000a3e  00000000  00000000  000054b7  2**0
                  CONTENTS, READONLY, DEBUGGING
  8 .debug_line   000017a4  00000000  00000000  00005ef5  2**0
                  CONTENTS, READONLY, DEBUGGING
  9 .debug_frame  00000540  00000000  00000000  0000769c  2**2
                  CONTENTS, READONLY, DEBUGGING
 10 .debug_str    000008a8  00000000  00000000  00007bdc  2**0
                  CONTENTS, READONLY, DEBUGGING
 11 .debug_loc    00000b5d  00000000  00000000  00008484  2**0
                  CONTENTS, READONLY, DEBUGGING
 12 .debug_ranges 00000178  00000000  00000000  00008fe1  2**0
                  CONTENTS, READONLY, DEBUGGING

Disassembly of section .text:

00000000 <__vectors>:
       0:	45 c0       	rjmp	.+138    	; 0x8c <__ctors_end>
       2:	00 00       	nop
       4:	62 c0       	rjmp	.+196    	; 0xca <__bad_interrupt>
       6:	00 00       	nop
       8:	60 c0       	rjmp	.+192    	; 0xca <__bad_interrupt>
       a:	00 00       	nop
       c:	5e c0       	rjmp	.+188    	; 0xca <__bad_interrupt>
       e:	00 00       	nop
      10:	5c c0       	rjmp	.+184    	; 0xca <__bad_interrupt>
      12:	00 00       	nop
      14:	5a c0       	rjmp	.+180    	; 0xca <__bad_interrupt>
      16:	00 00       	nop
      18:	58 c0       	rjmp	.+176    	; 0xca <__bad_interrupt>
      1a:	00 00       	nop
      1c:	56 c0       	rjmp	.+172    	; 0xca <__bad_interrupt>
      1e:	00 00       	nop
      20:	54 c0       	rjmp	.+168    	; 0xca <__bad_interrupt>
      22:	00 00       	nop
      24:	52 c0       	rjmp	.+164    	; 0xca <__bad_interrupt>
      26:	00 00       	nop
      28:	50 c0       	rjmp	.+160    	; 0xca <__bad_interrupt>
      2a:	00 00       	nop
      2c:	4e c0       	rjmp	.+156    	; 0xca <__bad_interrupt>
      2e:	00 00       	nop
      30:	4c c0       	rjmp	.+152    	; 0xca <__bad_interrupt>
      32:	00 00       	nop
      34:	0c 94 d6 0d 	jmp	0x1bac	; 0x1bac <__vector_13>
      38:	48 c0       	rjmp	.+144    	; 0xca <__bad_interrupt>
      3a:	00 00       	nop
      3c:	46 c0       	rjmp	.+140    	; 0xca <__bad_interrupt>
      3e:	00 00       	nop
      40:	44 c0       	rjmp	.+136    	; 0xca <__bad_interrupt>
      42:	00 00       	nop
      44:	42 c0       	rjmp	.+132    	; 0xca <__bad_interrupt>
      46:	00 00       	nop
      48:	40 c0       	rjmp	.+128    	; 0xca <__bad_interrupt>
      4a:	00 00       	nop
      4c:	3e c0       	rjmp	.+124    	; 0xca <__bad_interrupt>
      4e:	00 00       	nop
      50:	3c c0       	rjmp	.+120    	; 0xca <__bad_interrupt>
      52:	00 00       	nop
      54:	3a c0       	rjmp	.+116    	; 0xca <__bad_interrupt>
      56:	00 00       	nop
      58:	38 c0       	rjmp	.+112    	; 0xca <__bad_interrupt>
      5a:	00 00       	nop
      5c:	36 c0       	rjmp	.+108    	; 0xca <__bad_interrupt>
      5e:	00 00       	nop
      60:	34 c0       	rjmp	.+104    	; 0xca <__bad_interrupt>
      62:	00 00       	nop
      64:	32 c0       	rjmp	.+100    	; 0xca <__bad_interrupt>
      66:	00 00       	nop
      68:	30 c0       	rjmp	.+96     	; 0xca <__bad_interrupt>
      6a:	00 00       	nop
      6c:	2e c0       	rjmp	.+92     	; 0xca <__bad_interrupt>
      6e:	00 00       	nop
      70:	2c c0       	rjmp	.+88     	; 0xca <__bad_interrupt>
      72:	00 00       	nop
      74:	2a c0       	rjmp	.+84     	; 0xca <__bad_interrupt>
      76:	00 00       	nop
      78:	28 c0       	rjmp	.+80     	; 0xca <__bad_interrupt>
      7a:	00 00       	nop
      7c:	26 c0       	rjmp	.+76     	; 0xca <__bad_interrupt>
      7e:	00 00       	nop
      80:	24 c0       	rjmp	.+72     	; 0xca <__bad_interrupt>
      82:	00 00       	nop
      84:	22 c0       	rjmp	.+68     	; 0xca <__bad_interrupt>
      86:	00 00       	nop
      88:	20 c0       	rjmp	.+64     	; 0xca <__bad_interrupt>
	...

0000008c <__ctors_end>:
      8c:	11 24       	eor	r1, r1
      8e:	1f be       	out	0x3f, r1	; 63
      90:	cf ef       	ldi	r28, 0xFF	; 255
      92:	d0 e4       	ldi	r29, 0x40	; 64
      94:	de bf       	out	0x3e, r29	; 62
      96:	cd bf       	out	0x3d, r28	; 61

00000098 <__do_copy_data>:
      98:	17 e0       	ldi	r17, 0x07	; 7
      9a:	a0 e0       	ldi	r26, 0x00	; 0
      9c:	b1 e0       	ldi	r27, 0x01	; 1
      9e:	e2 e2       	ldi	r30, 0x22	; 34
      a0:	f0 e3       	ldi	r31, 0x30	; 48
      a2:	00 e0       	ldi	r16, 0x00	; 0
      a4:	0b bf       	out	0x3b, r16	; 59
      a6:	02 c0       	rjmp	.+4      	; 0xac <__do_copy_data+0x14>
      a8:	07 90       	elpm	r0, Z+
      aa:	0d 92       	st	X+, r0
      ac:	a2 32       	cpi	r26, 0x22	; 34
      ae:	b1 07       	cpc	r27, r17
      b0:	d9 f7       	brne	.-10     	; 0xa8 <__do_copy_data+0x10>

000000b2 <__do_clear_bss>:
      b2:	27 e0       	ldi	r18, 0x07	; 7
      b4:	a2 e2       	ldi	r26, 0x22	; 34
      b6:	b7 e0       	ldi	r27, 0x07	; 7
      b8:	01 c0       	rjmp	.+2      	; 0xbc <.do_clear_bss_start>

000000ba <.do_clear_bss_loop>:
      ba:	1d 92       	st	X+, r1

000000bc <.do_clear_bss_start>:
      bc:	af 37       	cpi	r26, 0x7F	; 127
      be:	b2 07       	cpc	r27, r18
      c0:	e1 f7       	brne	.-8      	; 0xba <.do_clear_bss_loop>
      c2:	0e 94 2f 14 	call	0x285e	; 0x285e <main>
      c6:	0c 94 0f 18 	jmp	0x301e	; 0x301e <_exit>

000000ca <__bad_interrupt>:
      ca:	9a cf       	rjmp	.-204    	; 0x0 <__vectors>

000000cc <initUSART>:
	SREG |= 0x80; // 0x80: 1000000
}

void TimerOff() {
	TCCR1B = 0x00; // bit3bit1bit0=000: timer off
}
      cc:	cf 93       	push	r28
      ce:	df 93       	push	r29
      d0:	1f 92       	push	r1
      d2:	cd b7       	in	r28, 0x3d	; 61
      d4:	de b7       	in	r29, 0x3e	; 62
      d6:	89 83       	std	Y+1, r24	; 0x01
      d8:	89 81       	ldd	r24, Y+1	; 0x01
      da:	81 30       	cpi	r24, 0x01	; 1
      dc:	e1 f0       	breq	.+56     	; 0x116 <initUSART+0x4a>
      de:	81 ec       	ldi	r24, 0xC1	; 193
      e0:	90 e0       	ldi	r25, 0x00	; 0
      e2:	21 ec       	ldi	r18, 0xC1	; 193
      e4:	30 e0       	ldi	r19, 0x00	; 0
      e6:	f9 01       	movw	r30, r18
      e8:	20 81       	ld	r18, Z
      ea:	28 61       	ori	r18, 0x18	; 24
      ec:	fc 01       	movw	r30, r24
      ee:	20 83       	st	Z, r18
      f0:	82 ec       	ldi	r24, 0xC2	; 194
      f2:	90 e0       	ldi	r25, 0x00	; 0
      f4:	22 ec       	ldi	r18, 0xC2	; 194
      f6:	30 e0       	ldi	r19, 0x00	; 0
      f8:	f9 01       	movw	r30, r18
      fa:	20 81       	ld	r18, Z
      fc:	26 60       	ori	r18, 0x06	; 6
      fe:	fc 01       	movw	r30, r24
     100:	20 83       	st	Z, r18
     102:	84 ec       	ldi	r24, 0xC4	; 196
     104:	90 e0       	ldi	r25, 0x00	; 0
     106:	23 e3       	ldi	r18, 0x33	; 51
     108:	fc 01       	movw	r30, r24
     10a:	20 83       	st	Z, r18
     10c:	85 ec       	ldi	r24, 0xC5	; 197
     10e:	90 e0       	ldi	r25, 0x00	; 0
     110:	fc 01       	movw	r30, r24
     112:	10 82       	st	Z, r1
     114:	1b c0       	rjmp	.+54     	; 0x14c <initUSART+0x80>
     116:	89 ec       	ldi	r24, 0xC9	; 201
     118:	90 e0       	ldi	r25, 0x00	; 0
     11a:	29 ec       	ldi	r18, 0xC9	; 201
     11c:	30 e0       	ldi	r19, 0x00	; 0
     11e:	f9 01       	movw	r30, r18
     120:	20 81       	ld	r18, Z
     122:	28 61       	ori	r18, 0x18	; 24
     124:	fc 01       	movw	r30, r24
     126:	20 83       	st	Z, r18
     128:	8a ec       	ldi	r24, 0xCA	; 202
     12a:	90 e0       	ldi	r25, 0x00	; 0
     12c:	2a ec       	ldi	r18, 0xCA	; 202
     12e:	30 e0       	ldi	r19, 0x00	; 0
     130:	f9 01       	movw	r30, r18
     132:	20 81       	ld	r18, Z
     134:	26 60       	ori	r18, 0x06	; 6
     136:	fc 01       	movw	r30, r24
     138:	20 83       	st	Z, r18
     13a:	8c ec       	ldi	r24, 0xCC	; 204
     13c:	90 e0       	ldi	r25, 0x00	; 0
     13e:	23 e3       	ldi	r18, 0x33	; 51
     140:	fc 01       	movw	r30, r24
     142:	20 83       	st	Z, r18
     144:	8d ec       	ldi	r24, 0xCD	; 205
     146:	90 e0       	ldi	r25, 0x00	; 0
     148:	fc 01       	movw	r30, r24
     14a:	10 82       	st	Z, r1
     14c:	00 00       	nop
     14e:	0f 90       	pop	r0
     150:	df 91       	pop	r29
     152:	cf 91       	pop	r28
     154:	08 95       	ret

00000156 <USART_HasReceived>:
     156:	cf 93       	push	r28
     158:	df 93       	push	r29
     15a:	1f 92       	push	r1
     15c:	cd b7       	in	r28, 0x3d	; 61
     15e:	de b7       	in	r29, 0x3e	; 62
     160:	89 83       	std	Y+1, r24	; 0x01
     162:	89 81       	ldd	r24, Y+1	; 0x01
     164:	81 30       	cpi	r24, 0x01	; 1
     166:	31 f0       	breq	.+12     	; 0x174 <USART_HasReceived+0x1e>
     168:	80 ec       	ldi	r24, 0xC0	; 192
     16a:	90 e0       	ldi	r25, 0x00	; 0
     16c:	fc 01       	movw	r30, r24
     16e:	80 81       	ld	r24, Z
     170:	80 78       	andi	r24, 0x80	; 128
     172:	05 c0       	rjmp	.+10     	; 0x17e <USART_HasReceived+0x28>
     174:	88 ec       	ldi	r24, 0xC8	; 200
     176:	90 e0       	ldi	r25, 0x00	; 0
     178:	fc 01       	movw	r30, r24
     17a:	80 81       	ld	r24, Z
     17c:	80 78       	andi	r24, 0x80	; 128
     17e:	0f 90       	pop	r0
     180:	df 91       	pop	r29
     182:	cf 91       	pop	r28
     184:	08 95       	ret

00000186 <USART_Receive>:
     186:	cf 93       	push	r28
     188:	df 93       	push	r29
     18a:	1f 92       	push	r1
     18c:	cd b7       	in	r28, 0x3d	; 61
     18e:	de b7       	in	r29, 0x3e	; 62
     190:	89 83       	std	Y+1, r24	; 0x01
     192:	89 81       	ldd	r24, Y+1	; 0x01
     194:	81 30       	cpi	r24, 0x01	; 1
     196:	61 f0       	breq	.+24     	; 0x1b0 <USART_Receive+0x2a>
     198:	00 00       	nop
     19a:	80 ec       	ldi	r24, 0xC0	; 192
     19c:	90 e0       	ldi	r25, 0x00	; 0
     19e:	fc 01       	movw	r30, r24
     1a0:	80 81       	ld	r24, Z
     1a2:	88 23       	and	r24, r24
     1a4:	d4 f7       	brge	.-12     	; 0x19a <USART_Receive+0x14>
     1a6:	86 ec       	ldi	r24, 0xC6	; 198
     1a8:	90 e0       	ldi	r25, 0x00	; 0
     1aa:	fc 01       	movw	r30, r24
     1ac:	80 81       	ld	r24, Z
     1ae:	0b c0       	rjmp	.+22     	; 0x1c6 <USART_Receive+0x40>
     1b0:	00 00       	nop
     1b2:	88 ec       	ldi	r24, 0xC8	; 200
     1b4:	90 e0       	ldi	r25, 0x00	; 0
     1b6:	fc 01       	movw	r30, r24
     1b8:	80 81       	ld	r24, Z
     1ba:	88 23       	and	r24, r24
     1bc:	d4 f7       	brge	.-12     	; 0x1b2 <USART_Receive+0x2c>
     1be:	8e ec       	ldi	r24, 0xCE	; 206
     1c0:	90 e0       	ldi	r25, 0x00	; 0
     1c2:	fc 01       	movw	r30, r24
     1c4:	80 81       	ld	r24, Z
     1c6:	0f 90       	pop	r0
     1c8:	df 91       	pop	r29
     1ca:	cf 91       	pop	r28
     1cc:	08 95       	ret

000001ce <LCD_Commands>:
     1ce:	0f 93       	push	r16
     1d0:	1f 93       	push	r17
     1d2:	cf 93       	push	r28
     1d4:	df 93       	push	r29
     1d6:	cd b7       	in	r28, 0x3d	; 61
     1d8:	de b7       	in	r29, 0x3e	; 62
     1da:	cf 56       	subi	r28, 0x6F	; 111
     1dc:	d1 09       	sbc	r29, r1
     1de:	0f b6       	in	r0, 0x3f	; 63
     1e0:	f8 94       	cli
     1e2:	de bf       	out	0x3e, r29	; 62
     1e4:	0f be       	out	0x3f, r0	; 63
     1e6:	cd bf       	out	0x3d, r28	; 61
     1e8:	9e 01       	movw	r18, r28
     1ea:	21 59       	subi	r18, 0x91	; 145
     1ec:	3f 4f       	sbci	r19, 0xFF	; 255
     1ee:	f9 01       	movw	r30, r18
     1f0:	80 83       	st	Z, r24
     1f2:	8b e2       	ldi	r24, 0x2B	; 43
     1f4:	90 e0       	ldi	r25, 0x00	; 0
     1f6:	2b e2       	ldi	r18, 0x2B	; 43
     1f8:	30 e0       	ldi	r19, 0x00	; 0
     1fa:	f9 01       	movw	r30, r18
     1fc:	20 81       	ld	r18, Z
     1fe:	42 2f       	mov	r20, r18
     200:	4f 70       	andi	r20, 0x0F	; 15
     202:	9e 01       	movw	r18, r28
     204:	21 59       	subi	r18, 0x91	; 145
     206:	3f 4f       	sbci	r19, 0xFF	; 255
     208:	f9 01       	movw	r30, r18
     20a:	20 81       	ld	r18, Z
     20c:	20 7f       	andi	r18, 0xF0	; 240
     20e:	24 2b       	or	r18, r20
     210:	fc 01       	movw	r30, r24
     212:	20 83       	st	Z, r18
     214:	8b e2       	ldi	r24, 0x2B	; 43
     216:	90 e0       	ldi	r25, 0x00	; 0
     218:	2b e2       	ldi	r18, 0x2B	; 43
     21a:	30 e0       	ldi	r19, 0x00	; 0
     21c:	f9 01       	movw	r30, r18
     21e:	20 81       	ld	r18, Z
     220:	2b 7f       	andi	r18, 0xFB	; 251
     222:	fc 01       	movw	r30, r24
     224:	20 83       	st	Z, r18
     226:	8b e2       	ldi	r24, 0x2B	; 43
     228:	90 e0       	ldi	r25, 0x00	; 0
     22a:	2b e2       	ldi	r18, 0x2B	; 43
     22c:	30 e0       	ldi	r19, 0x00	; 0
     22e:	f9 01       	movw	r30, r18
     230:	20 81       	ld	r18, Z
     232:	28 60       	ori	r18, 0x08	; 8
     234:	fc 01       	movw	r30, r24
     236:	20 83       	st	Z, r18
     238:	80 e0       	ldi	r24, 0x00	; 0
     23a:	90 e0       	ldi	r25, 0x00	; 0
     23c:	a0 e8       	ldi	r26, 0x80	; 128
     23e:	bf e3       	ldi	r27, 0x3F	; 63
     240:	89 83       	std	Y+1, r24	; 0x01
     242:	9a 83       	std	Y+2, r25	; 0x02
     244:	ab 83       	std	Y+3, r26	; 0x03
     246:	bc 83       	std	Y+4, r27	; 0x04
     248:	8e 01       	movw	r16, r28
     24a:	0d 5a       	subi	r16, 0xAD	; 173
     24c:	1f 4f       	sbci	r17, 0xFF	; 255
     24e:	2b ea       	ldi	r18, 0xAB	; 171
     250:	3a ea       	ldi	r19, 0xAA	; 170
     252:	4a ea       	ldi	r20, 0xAA	; 170
     254:	5e e3       	ldi	r21, 0x3E	; 62
     256:	69 81       	ldd	r22, Y+1	; 0x01
     258:	7a 81       	ldd	r23, Y+2	; 0x02
     25a:	8b 81       	ldd	r24, Y+3	; 0x03
     25c:	9c 81       	ldd	r25, Y+4	; 0x04
     25e:	0e 94 9e 17 	call	0x2f3c	; 0x2f3c <__mulsf3>
     262:	dc 01       	movw	r26, r24
     264:	cb 01       	movw	r24, r22
     266:	f8 01       	movw	r30, r16
     268:	80 83       	st	Z, r24
     26a:	91 83       	std	Z+1, r25	; 0x01
     26c:	a2 83       	std	Z+2, r26	; 0x02
     26e:	b3 83       	std	Z+3, r27	; 0x03
     270:	8e 01       	movw	r16, r28
     272:	09 5a       	subi	r16, 0xA9	; 169
     274:	1f 4f       	sbci	r17, 0xFF	; 255
     276:	20 e0       	ldi	r18, 0x00	; 0
     278:	30 e0       	ldi	r19, 0x00	; 0
     27a:	40 e8       	ldi	r20, 0x80	; 128
     27c:	5e e3       	ldi	r21, 0x3E	; 62
     27e:	69 81       	ldd	r22, Y+1	; 0x01
     280:	7a 81       	ldd	r23, Y+2	; 0x02
     282:	8b 81       	ldd	r24, Y+3	; 0x03
     284:	9c 81       	ldd	r25, Y+4	; 0x04
     286:	0e 94 9e 17 	call	0x2f3c	; 0x2f3c <__mulsf3>
     28a:	dc 01       	movw	r26, r24
     28c:	cb 01       	movw	r24, r22
     28e:	f8 01       	movw	r30, r16
     290:	80 83       	st	Z, r24
     292:	91 83       	std	Z+1, r25	; 0x01
     294:	a2 83       	std	Z+2, r26	; 0x02
     296:	b3 83       	std	Z+3, r27	; 0x03
     298:	ce 01       	movw	r24, r28
     29a:	8d 5a       	subi	r24, 0xAD	; 173
     29c:	9f 4f       	sbci	r25, 0xFF	; 255
     29e:	20 e0       	ldi	r18, 0x00	; 0
     2a0:	30 e0       	ldi	r19, 0x00	; 0
     2a2:	40 e8       	ldi	r20, 0x80	; 128
     2a4:	5f e3       	ldi	r21, 0x3F	; 63
     2a6:	fc 01       	movw	r30, r24
     2a8:	60 81       	ld	r22, Z
     2aa:	71 81       	ldd	r23, Z+1	; 0x01
     2ac:	82 81       	ldd	r24, Z+2	; 0x02
     2ae:	93 81       	ldd	r25, Z+3	; 0x03
     2b0:	0e 94 4b 16 	call	0x2c96	; 0x2c96 <__cmpsf2>
     2b4:	88 23       	and	r24, r24
     2b6:	3c f4       	brge	.+14     	; 0x2c6 <LCD_Commands+0xf8>
     2b8:	ce 01       	movw	r24, r28
     2ba:	85 5a       	subi	r24, 0xA5	; 165
     2bc:	9f 4f       	sbci	r25, 0xFF	; 255
     2be:	21 e0       	ldi	r18, 0x01	; 1
     2c0:	fc 01       	movw	r30, r24
     2c2:	20 83       	st	Z, r18
     2c4:	2c c1       	rjmp	.+600    	; 0x51e <__LOCK_REGION_LENGTH__+0x11e>
     2c6:	ce 01       	movw	r24, r28
     2c8:	89 5a       	subi	r24, 0xA9	; 169
     2ca:	9f 4f       	sbci	r25, 0xFF	; 255
     2cc:	20 e0       	ldi	r18, 0x00	; 0
     2ce:	3f ef       	ldi	r19, 0xFF	; 255
     2d0:	4f e7       	ldi	r20, 0x7F	; 127
     2d2:	57 e4       	ldi	r21, 0x47	; 71
     2d4:	fc 01       	movw	r30, r24
     2d6:	60 81       	ld	r22, Z
     2d8:	71 81       	ldd	r23, Z+1	; 0x01
     2da:	82 81       	ldd	r24, Z+2	; 0x02
     2dc:	93 81       	ldd	r25, Z+3	; 0x03
     2de:	0e 94 9a 17 	call	0x2f34	; 0x2f34 <__gesf2>
     2e2:	18 16       	cp	r1, r24
     2e4:	0c f0       	brlt	.+2      	; 0x2e8 <LCD_Commands+0x11a>
     2e6:	cd c0       	rjmp	.+410    	; 0x482 <__LOCK_REGION_LENGTH__+0x82>
     2e8:	20 e0       	ldi	r18, 0x00	; 0
     2ea:	30 e0       	ldi	r19, 0x00	; 0
     2ec:	4a e7       	ldi	r20, 0x7A	; 122
     2ee:	54 e4       	ldi	r21, 0x44	; 68
     2f0:	69 81       	ldd	r22, Y+1	; 0x01
     2f2:	7a 81       	ldd	r23, Y+2	; 0x02
     2f4:	8b 81       	ldd	r24, Y+3	; 0x03
     2f6:	9c 81       	ldd	r25, Y+4	; 0x04
     2f8:	0e 94 4f 16 	call	0x2c9e	; 0x2c9e <__divsf3>
     2fc:	dc 01       	movw	r26, r24
     2fe:	cb 01       	movw	r24, r22
     300:	9e 01       	movw	r18, r28
     302:	24 5a       	subi	r18, 0xA4	; 164
     304:	3f 4f       	sbci	r19, 0xFF	; 255
     306:	f9 01       	movw	r30, r18
     308:	80 83       	st	Z, r24
     30a:	91 83       	std	Z+1, r25	; 0x01
     30c:	a2 83       	std	Z+2, r26	; 0x02
     30e:	b3 83       	std	Z+3, r27	; 0x03
     310:	8e 01       	movw	r16, r28
     312:	00 5a       	subi	r16, 0xA0	; 160
     314:	1f 4f       	sbci	r17, 0xFF	; 255
     316:	ce 01       	movw	r24, r28
     318:	84 5a       	subi	r24, 0xA4	; 164
     31a:	9f 4f       	sbci	r25, 0xFF	; 255
     31c:	20 e0       	ldi	r18, 0x00	; 0
     31e:	30 e0       	ldi	r19, 0x00	; 0
     320:	4a e7       	ldi	r20, 0x7A	; 122
     322:	53 e4       	ldi	r21, 0x43	; 67
     324:	fc 01       	movw	r30, r24
     326:	60 81       	ld	r22, Z
     328:	71 81       	ldd	r23, Z+1	; 0x01
     32a:	82 81       	ldd	r24, Z+2	; 0x02
     32c:	93 81       	ldd	r25, Z+3	; 0x03
     32e:	0e 94 9e 17 	call	0x2f3c	; 0x2f3c <__mulsf3>
     332:	dc 01       	movw	r26, r24
     334:	cb 01       	movw	r24, r22
     336:	f8 01       	movw	r30, r16
     338:	80 83       	st	Z, r24
     33a:	91 83       	std	Z+1, r25	; 0x01
     33c:	a2 83       	std	Z+2, r26	; 0x02
     33e:	b3 83       	std	Z+3, r27	; 0x03
     340:	ce 01       	movw	r24, r28
     342:	80 5a       	subi	r24, 0xA0	; 160
     344:	9f 4f       	sbci	r25, 0xFF	; 255
     346:	20 e0       	ldi	r18, 0x00	; 0
     348:	30 e0       	ldi	r19, 0x00	; 0
     34a:	40 e8       	ldi	r20, 0x80	; 128
     34c:	5f e3       	ldi	r21, 0x3F	; 63
     34e:	fc 01       	movw	r30, r24
     350:	60 81       	ld	r22, Z
     352:	71 81       	ldd	r23, Z+1	; 0x01
     354:	82 81       	ldd	r24, Z+2	; 0x02
     356:	93 81       	ldd	r25, Z+3	; 0x03
     358:	0e 94 4b 16 	call	0x2c96	; 0x2c96 <__cmpsf2>
     35c:	88 23       	and	r24, r24
     35e:	4c f4       	brge	.+18     	; 0x372 <LCD_Commands+0x1a4>
     360:	ce 01       	movw	r24, r28
     362:	8c 59       	subi	r24, 0x9C	; 156
     364:	9f 4f       	sbci	r25, 0xFF	; 255
     366:	21 e0       	ldi	r18, 0x01	; 1
     368:	30 e0       	ldi	r19, 0x00	; 0
     36a:	fc 01       	movw	r30, r24
     36c:	31 83       	std	Z+1, r19	; 0x01
     36e:	20 83       	st	Z, r18
     370:	6d c0       	rjmp	.+218    	; 0x44c <__LOCK_REGION_LENGTH__+0x4c>
     372:	ce 01       	movw	r24, r28
     374:	80 5a       	subi	r24, 0xA0	; 160
     376:	9f 4f       	sbci	r25, 0xFF	; 255
     378:	20 e0       	ldi	r18, 0x00	; 0
     37a:	3f ef       	ldi	r19, 0xFF	; 255
     37c:	4f e7       	ldi	r20, 0x7F	; 127
     37e:	57 e4       	ldi	r21, 0x47	; 71
     380:	fc 01       	movw	r30, r24
     382:	60 81       	ld	r22, Z
     384:	71 81       	ldd	r23, Z+1	; 0x01
     386:	82 81       	ldd	r24, Z+2	; 0x02
     388:	93 81       	ldd	r25, Z+3	; 0x03
     38a:	0e 94 9a 17 	call	0x2f34	; 0x2f34 <__gesf2>
     38e:	18 16       	cp	r1, r24
     390:	0c f0       	brlt	.+2      	; 0x394 <LCD_Commands+0x1c6>
     392:	4a c0       	rjmp	.+148    	; 0x428 <__LOCK_REGION_LENGTH__+0x28>
     394:	ce 01       	movw	r24, r28
     396:	84 5a       	subi	r24, 0xA4	; 164
     398:	9f 4f       	sbci	r25, 0xFF	; 255
     39a:	20 e0       	ldi	r18, 0x00	; 0
     39c:	30 e0       	ldi	r19, 0x00	; 0
     39e:	40 e2       	ldi	r20, 0x20	; 32
     3a0:	51 e4       	ldi	r21, 0x41	; 65
     3a2:	fc 01       	movw	r30, r24
     3a4:	60 81       	ld	r22, Z
     3a6:	71 81       	ldd	r23, Z+1	; 0x01
     3a8:	82 81       	ldd	r24, Z+2	; 0x02
     3aa:	93 81       	ldd	r25, Z+3	; 0x03
     3ac:	0e 94 9e 17 	call	0x2f3c	; 0x2f3c <__mulsf3>
     3b0:	dc 01       	movw	r26, r24
     3b2:	cb 01       	movw	r24, r22
     3b4:	8e 01       	movw	r16, r28
     3b6:	0c 59       	subi	r16, 0x9C	; 156
     3b8:	1f 4f       	sbci	r17, 0xFF	; 255
     3ba:	bc 01       	movw	r22, r24
     3bc:	cd 01       	movw	r24, r26
     3be:	0e 94 bc 16 	call	0x2d78	; 0x2d78 <__fixunssfsi>
     3c2:	dc 01       	movw	r26, r24
     3c4:	cb 01       	movw	r24, r22
     3c6:	f8 01       	movw	r30, r16
     3c8:	91 83       	std	Z+1, r25	; 0x01
     3ca:	80 83       	st	Z, r24
     3cc:	24 c0       	rjmp	.+72     	; 0x416 <__LOCK_REGION_LENGTH__+0x16>
     3ce:	ce 01       	movw	r24, r28
     3d0:	8a 59       	subi	r24, 0x9A	; 154
     3d2:	9f 4f       	sbci	r25, 0xFF	; 255
     3d4:	29 e1       	ldi	r18, 0x19	; 25
     3d6:	30 e0       	ldi	r19, 0x00	; 0
     3d8:	fc 01       	movw	r30, r24
     3da:	31 83       	std	Z+1, r19	; 0x01
     3dc:	20 83       	st	Z, r18
     3de:	ce 01       	movw	r24, r28
     3e0:	8a 59       	subi	r24, 0x9A	; 154
     3e2:	9f 4f       	sbci	r25, 0xFF	; 255
     3e4:	fc 01       	movw	r30, r24
     3e6:	80 81       	ld	r24, Z
     3e8:	91 81       	ldd	r25, Z+1	; 0x01
     3ea:	01 97       	sbiw	r24, 0x01	; 1
     3ec:	f1 f7       	brne	.-4      	; 0x3ea <LCD_Commands+0x21c>
     3ee:	9e 01       	movw	r18, r28
     3f0:	2a 59       	subi	r18, 0x9A	; 154
     3f2:	3f 4f       	sbci	r19, 0xFF	; 255
     3f4:	f9 01       	movw	r30, r18
     3f6:	91 83       	std	Z+1, r25	; 0x01
     3f8:	80 83       	st	Z, r24
     3fa:	ce 01       	movw	r24, r28
     3fc:	8c 59       	subi	r24, 0x9C	; 156
     3fe:	9f 4f       	sbci	r25, 0xFF	; 255
     400:	9e 01       	movw	r18, r28
     402:	2c 59       	subi	r18, 0x9C	; 156
     404:	3f 4f       	sbci	r19, 0xFF	; 255
     406:	f9 01       	movw	r30, r18
     408:	20 81       	ld	r18, Z
     40a:	31 81       	ldd	r19, Z+1	; 0x01
     40c:	21 50       	subi	r18, 0x01	; 1
     40e:	31 09       	sbc	r19, r1
     410:	fc 01       	movw	r30, r24
     412:	31 83       	std	Z+1, r19	; 0x01
     414:	20 83       	st	Z, r18
     416:	ce 01       	movw	r24, r28
     418:	8c 59       	subi	r24, 0x9C	; 156
     41a:	9f 4f       	sbci	r25, 0xFF	; 255
     41c:	fc 01       	movw	r30, r24
     41e:	80 81       	ld	r24, Z
     420:	91 81       	ldd	r25, Z+1	; 0x01
     422:	89 2b       	or	r24, r25
     424:	a1 f6       	brne	.-88     	; 0x3ce <LCD_Commands+0x200>
     426:	7b c0       	rjmp	.+246    	; 0x51e <__LOCK_REGION_LENGTH__+0x11e>
     428:	8e 01       	movw	r16, r28
     42a:	0c 59       	subi	r16, 0x9C	; 156
     42c:	1f 4f       	sbci	r17, 0xFF	; 255
     42e:	ce 01       	movw	r24, r28
     430:	80 5a       	subi	r24, 0xA0	; 160
     432:	9f 4f       	sbci	r25, 0xFF	; 255
     434:	fc 01       	movw	r30, r24
     436:	60 81       	ld	r22, Z
     438:	71 81       	ldd	r23, Z+1	; 0x01
     43a:	82 81       	ldd	r24, Z+2	; 0x02
     43c:	93 81       	ldd	r25, Z+3	; 0x03
     43e:	0e 94 bc 16 	call	0x2d78	; 0x2d78 <__fixunssfsi>
     442:	dc 01       	movw	r26, r24
     444:	cb 01       	movw	r24, r22
     446:	f8 01       	movw	r30, r16
     448:	91 83       	std	Z+1, r25	; 0x01
     44a:	80 83       	st	Z, r24
     44c:	ce 01       	movw	r24, r28
     44e:	88 59       	subi	r24, 0x98	; 152
     450:	9f 4f       	sbci	r25, 0xFF	; 255
     452:	9e 01       	movw	r18, r28
     454:	2c 59       	subi	r18, 0x9C	; 156
     456:	3f 4f       	sbci	r19, 0xFF	; 255
     458:	f9 01       	movw	r30, r18
     45a:	20 81       	ld	r18, Z
     45c:	31 81       	ldd	r19, Z+1	; 0x01
     45e:	fc 01       	movw	r30, r24
     460:	31 83       	std	Z+1, r19	; 0x01
     462:	20 83       	st	Z, r18
     464:	ce 01       	movw	r24, r28
     466:	88 59       	subi	r24, 0x98	; 152
     468:	9f 4f       	sbci	r25, 0xFF	; 255
     46a:	fc 01       	movw	r30, r24
     46c:	80 81       	ld	r24, Z
     46e:	91 81       	ldd	r25, Z+1	; 0x01
     470:	01 97       	sbiw	r24, 0x01	; 1
     472:	f1 f7       	brne	.-4      	; 0x470 <__LOCK_REGION_LENGTH__+0x70>
     474:	9e 01       	movw	r18, r28
     476:	28 59       	subi	r18, 0x98	; 152
     478:	3f 4f       	sbci	r19, 0xFF	; 255
     47a:	f9 01       	movw	r30, r18
     47c:	91 83       	std	Z+1, r25	; 0x01
     47e:	80 83       	st	Z, r24
     480:	4e c0       	rjmp	.+156    	; 0x51e <__LOCK_REGION_LENGTH__+0x11e>
     482:	ce 01       	movw	r24, r28
     484:	8d 5a       	subi	r24, 0xAD	; 173
     486:	9f 4f       	sbci	r25, 0xFF	; 255
     488:	20 e0       	ldi	r18, 0x00	; 0
     48a:	30 e0       	ldi	r19, 0x00	; 0
     48c:	4f e7       	ldi	r20, 0x7F	; 127
     48e:	53 e4       	ldi	r21, 0x43	; 67
     490:	fc 01       	movw	r30, r24
     492:	60 81       	ld	r22, Z
     494:	71 81       	ldd	r23, Z+1	; 0x01
     496:	82 81       	ldd	r24, Z+2	; 0x02
     498:	93 81       	ldd	r25, Z+3	; 0x03
     49a:	0e 94 9a 17 	call	0x2f34	; 0x2f34 <__gesf2>
     49e:	18 16       	cp	r1, r24
     4a0:	6c f5       	brge	.+90     	; 0x4fc <__LOCK_REGION_LENGTH__+0xfc>
     4a2:	8e 01       	movw	r16, r28
     4a4:	06 59       	subi	r16, 0x96	; 150
     4a6:	1f 4f       	sbci	r17, 0xFF	; 255
     4a8:	ce 01       	movw	r24, r28
     4aa:	89 5a       	subi	r24, 0xA9	; 169
     4ac:	9f 4f       	sbci	r25, 0xFF	; 255
     4ae:	fc 01       	movw	r30, r24
     4b0:	60 81       	ld	r22, Z
     4b2:	71 81       	ldd	r23, Z+1	; 0x01
     4b4:	82 81       	ldd	r24, Z+2	; 0x02
     4b6:	93 81       	ldd	r25, Z+3	; 0x03
     4b8:	0e 94 bc 16 	call	0x2d78	; 0x2d78 <__fixunssfsi>
     4bc:	dc 01       	movw	r26, r24
     4be:	cb 01       	movw	r24, r22
     4c0:	f8 01       	movw	r30, r16
     4c2:	91 83       	std	Z+1, r25	; 0x01
     4c4:	80 83       	st	Z, r24
     4c6:	ce 01       	movw	r24, r28
     4c8:	84 59       	subi	r24, 0x94	; 148
     4ca:	9f 4f       	sbci	r25, 0xFF	; 255
     4cc:	9e 01       	movw	r18, r28
     4ce:	26 59       	subi	r18, 0x96	; 150
     4d0:	3f 4f       	sbci	r19, 0xFF	; 255
     4d2:	f9 01       	movw	r30, r18
     4d4:	20 81       	ld	r18, Z
     4d6:	31 81       	ldd	r19, Z+1	; 0x01
     4d8:	fc 01       	movw	r30, r24
     4da:	31 83       	std	Z+1, r19	; 0x01
     4dc:	20 83       	st	Z, r18
     4de:	ce 01       	movw	r24, r28
     4e0:	84 59       	subi	r24, 0x94	; 148
     4e2:	9f 4f       	sbci	r25, 0xFF	; 255
     4e4:	fc 01       	movw	r30, r24
     4e6:	80 81       	ld	r24, Z
     4e8:	91 81       	ldd	r25, Z+1	; 0x01
     4ea:	01 97       	sbiw	r24, 0x01	; 1
     4ec:	f1 f7       	brne	.-4      	; 0x4ea <__LOCK_REGION_LENGTH__+0xea>
     4ee:	9e 01       	movw	r18, r28
     4f0:	24 59       	subi	r18, 0x94	; 148
     4f2:	3f 4f       	sbci	r19, 0xFF	; 255
     4f4:	f9 01       	movw	r30, r18
     4f6:	91 83       	std	Z+1, r25	; 0x01
     4f8:	80 83       	st	Z, r24
     4fa:	28 c0       	rjmp	.+80     	; 0x54c <__LOCK_REGION_LENGTH__+0x14c>
     4fc:	8e 01       	movw	r16, r28
     4fe:	05 5a       	subi	r16, 0xA5	; 165
     500:	1f 4f       	sbci	r17, 0xFF	; 255
     502:	ce 01       	movw	r24, r28
     504:	8d 5a       	subi	r24, 0xAD	; 173
     506:	9f 4f       	sbci	r25, 0xFF	; 255
     508:	fc 01       	movw	r30, r24
     50a:	60 81       	ld	r22, Z
     50c:	71 81       	ldd	r23, Z+1	; 0x01
     50e:	82 81       	ldd	r24, Z+2	; 0x02
     510:	93 81       	ldd	r25, Z+3	; 0x03
     512:	0e 94 bc 16 	call	0x2d78	; 0x2d78 <__fixunssfsi>
     516:	dc 01       	movw	r26, r24
     518:	cb 01       	movw	r24, r22
     51a:	f8 01       	movw	r30, r16
     51c:	80 83       	st	Z, r24
     51e:	ce 01       	movw	r24, r28
     520:	82 59       	subi	r24, 0x92	; 146
     522:	9f 4f       	sbci	r25, 0xFF	; 255
     524:	9e 01       	movw	r18, r28
     526:	25 5a       	subi	r18, 0xA5	; 165
     528:	3f 4f       	sbci	r19, 0xFF	; 255
     52a:	f9 01       	movw	r30, r18
     52c:	20 81       	ld	r18, Z
     52e:	fc 01       	movw	r30, r24
     530:	20 83       	st	Z, r18
     532:	ce 01       	movw	r24, r28
     534:	82 59       	subi	r24, 0x92	; 146
     536:	9f 4f       	sbci	r25, 0xFF	; 255
     538:	fc 01       	movw	r30, r24
     53a:	80 81       	ld	r24, Z
     53c:	28 2f       	mov	r18, r24
     53e:	2a 95       	dec	r18
     540:	f1 f7       	brne	.-4      	; 0x53e <__LOCK_REGION_LENGTH__+0x13e>
     542:	ce 01       	movw	r24, r28
     544:	82 59       	subi	r24, 0x92	; 146
     546:	9f 4f       	sbci	r25, 0xFF	; 255
     548:	fc 01       	movw	r30, r24
     54a:	20 83       	st	Z, r18
     54c:	8b e2       	ldi	r24, 0x2B	; 43
     54e:	90 e0       	ldi	r25, 0x00	; 0
     550:	2b e2       	ldi	r18, 0x2B	; 43
     552:	30 e0       	ldi	r19, 0x00	; 0
     554:	f9 01       	movw	r30, r18
     556:	20 81       	ld	r18, Z
     558:	27 7f       	andi	r18, 0xF7	; 247
     55a:	fc 01       	movw	r30, r24
     55c:	20 83       	st	Z, r18
     55e:	80 e0       	ldi	r24, 0x00	; 0
     560:	90 e0       	ldi	r25, 0x00	; 0
     562:	a8 e4       	ldi	r26, 0x48	; 72
     564:	b3 e4       	ldi	r27, 0x43	; 67
     566:	8d 83       	std	Y+5, r24	; 0x05
     568:	9e 83       	std	Y+6, r25	; 0x06
     56a:	af 83       	std	Y+7, r26	; 0x07
     56c:	b8 87       	std	Y+8, r27	; 0x08
     56e:	2b ea       	ldi	r18, 0xAB	; 171
     570:	3a ea       	ldi	r19, 0xAA	; 170
     572:	4a ea       	ldi	r20, 0xAA	; 170
     574:	5e e3       	ldi	r21, 0x3E	; 62
     576:	6d 81       	ldd	r22, Y+5	; 0x05
     578:	7e 81       	ldd	r23, Y+6	; 0x06
     57a:	8f 81       	ldd	r24, Y+7	; 0x07
     57c:	98 85       	ldd	r25, Y+8	; 0x08
     57e:	0e 94 9e 17 	call	0x2f3c	; 0x2f3c <__mulsf3>
     582:	dc 01       	movw	r26, r24
     584:	cb 01       	movw	r24, r22
     586:	8f ab       	std	Y+55, r24	; 0x37
     588:	98 af       	std	Y+56, r25	; 0x38
     58a:	a9 af       	std	Y+57, r26	; 0x39
     58c:	ba af       	std	Y+58, r27	; 0x3a
     58e:	20 e0       	ldi	r18, 0x00	; 0
     590:	30 e0       	ldi	r19, 0x00	; 0
     592:	40 e8       	ldi	r20, 0x80	; 128
     594:	5e e3       	ldi	r21, 0x3E	; 62
     596:	6d 81       	ldd	r22, Y+5	; 0x05
     598:	7e 81       	ldd	r23, Y+6	; 0x06
     59a:	8f 81       	ldd	r24, Y+7	; 0x07
     59c:	98 85       	ldd	r25, Y+8	; 0x08
     59e:	0e 94 9e 17 	call	0x2f3c	; 0x2f3c <__mulsf3>
     5a2:	dc 01       	movw	r26, r24
     5a4:	cb 01       	movw	r24, r22
     5a6:	8b af       	std	Y+59, r24	; 0x3b
     5a8:	9c af       	std	Y+60, r25	; 0x3c
     5aa:	ad af       	std	Y+61, r26	; 0x3d
     5ac:	be af       	std	Y+62, r27	; 0x3e
     5ae:	20 e0       	ldi	r18, 0x00	; 0
     5b0:	30 e0       	ldi	r19, 0x00	; 0
     5b2:	40 e8       	ldi	r20, 0x80	; 128
     5b4:	5f e3       	ldi	r21, 0x3F	; 63
     5b6:	6f a9       	ldd	r22, Y+55	; 0x37
     5b8:	78 ad       	ldd	r23, Y+56	; 0x38
     5ba:	89 ad       	ldd	r24, Y+57	; 0x39
     5bc:	9a ad       	ldd	r25, Y+58	; 0x3a
     5be:	0e 94 4b 16 	call	0x2c96	; 0x2c96 <__cmpsf2>
     5c2:	88 23       	and	r24, r24
     5c4:	1c f4       	brge	.+6      	; 0x5cc <__LOCK_REGION_LENGTH__+0x1cc>
     5c6:	81 e0       	ldi	r24, 0x01	; 1
     5c8:	8f af       	std	Y+63, r24	; 0x3f
     5ca:	18 c1       	rjmp	.+560    	; 0x7fc <__LOCK_REGION_LENGTH__+0x3fc>
     5cc:	20 e0       	ldi	r18, 0x00	; 0
     5ce:	3f ef       	ldi	r19, 0xFF	; 255
     5d0:	4f e7       	ldi	r20, 0x7F	; 127
     5d2:	57 e4       	ldi	r21, 0x47	; 71
     5d4:	6b ad       	ldd	r22, Y+59	; 0x3b
     5d6:	7c ad       	ldd	r23, Y+60	; 0x3c
     5d8:	8d ad       	ldd	r24, Y+61	; 0x3d
     5da:	9e ad       	ldd	r25, Y+62	; 0x3e
     5dc:	0e 94 9a 17 	call	0x2f34	; 0x2f34 <__gesf2>
     5e0:	18 16       	cp	r1, r24
     5e2:	0c f0       	brlt	.+2      	; 0x5e6 <__LOCK_REGION_LENGTH__+0x1e6>
     5e4:	cd c0       	rjmp	.+410    	; 0x780 <__LOCK_REGION_LENGTH__+0x380>
     5e6:	20 e0       	ldi	r18, 0x00	; 0
     5e8:	30 e0       	ldi	r19, 0x00	; 0
     5ea:	4a e7       	ldi	r20, 0x7A	; 122
     5ec:	54 e4       	ldi	r21, 0x44	; 68
     5ee:	6d 81       	ldd	r22, Y+5	; 0x05
     5f0:	7e 81       	ldd	r23, Y+6	; 0x06
     5f2:	8f 81       	ldd	r24, Y+7	; 0x07
     5f4:	98 85       	ldd	r25, Y+8	; 0x08
     5f6:	0e 94 4f 16 	call	0x2c9e	; 0x2c9e <__divsf3>
     5fa:	dc 01       	movw	r26, r24
     5fc:	cb 01       	movw	r24, r22
     5fe:	9e 01       	movw	r18, r28
     600:	20 5c       	subi	r18, 0xC0	; 192
     602:	3f 4f       	sbci	r19, 0xFF	; 255
     604:	f9 01       	movw	r30, r18
     606:	80 83       	st	Z, r24
     608:	91 83       	std	Z+1, r25	; 0x01
     60a:	a2 83       	std	Z+2, r26	; 0x02
     60c:	b3 83       	std	Z+3, r27	; 0x03
     60e:	8e 01       	movw	r16, r28
     610:	0c 5b       	subi	r16, 0xBC	; 188
     612:	1f 4f       	sbci	r17, 0xFF	; 255
     614:	ce 01       	movw	r24, r28
     616:	80 5c       	subi	r24, 0xC0	; 192
     618:	9f 4f       	sbci	r25, 0xFF	; 255
     61a:	20 e0       	ldi	r18, 0x00	; 0
     61c:	30 e0       	ldi	r19, 0x00	; 0
     61e:	4a e7       	ldi	r20, 0x7A	; 122
     620:	53 e4       	ldi	r21, 0x43	; 67
     622:	fc 01       	movw	r30, r24
     624:	60 81       	ld	r22, Z
     626:	71 81       	ldd	r23, Z+1	; 0x01
     628:	82 81       	ldd	r24, Z+2	; 0x02
     62a:	93 81       	ldd	r25, Z+3	; 0x03
     62c:	0e 94 9e 17 	call	0x2f3c	; 0x2f3c <__mulsf3>
     630:	dc 01       	movw	r26, r24
     632:	cb 01       	movw	r24, r22
     634:	f8 01       	movw	r30, r16
     636:	80 83       	st	Z, r24
     638:	91 83       	std	Z+1, r25	; 0x01
     63a:	a2 83       	std	Z+2, r26	; 0x02
     63c:	b3 83       	std	Z+3, r27	; 0x03
     63e:	ce 01       	movw	r24, r28
     640:	8c 5b       	subi	r24, 0xBC	; 188
     642:	9f 4f       	sbci	r25, 0xFF	; 255
     644:	20 e0       	ldi	r18, 0x00	; 0
     646:	30 e0       	ldi	r19, 0x00	; 0
     648:	40 e8       	ldi	r20, 0x80	; 128
     64a:	5f e3       	ldi	r21, 0x3F	; 63
     64c:	fc 01       	movw	r30, r24
     64e:	60 81       	ld	r22, Z
     650:	71 81       	ldd	r23, Z+1	; 0x01
     652:	82 81       	ldd	r24, Z+2	; 0x02
     654:	93 81       	ldd	r25, Z+3	; 0x03
     656:	0e 94 4b 16 	call	0x2c96	; 0x2c96 <__cmpsf2>
     65a:	88 23       	and	r24, r24
     65c:	4c f4       	brge	.+18     	; 0x670 <__LOCK_REGION_LENGTH__+0x270>
     65e:	ce 01       	movw	r24, r28
     660:	88 5b       	subi	r24, 0xB8	; 184
     662:	9f 4f       	sbci	r25, 0xFF	; 255
     664:	21 e0       	ldi	r18, 0x01	; 1
     666:	30 e0       	ldi	r19, 0x00	; 0
     668:	fc 01       	movw	r30, r24
     66a:	31 83       	std	Z+1, r19	; 0x01
     66c:	20 83       	st	Z, r18
     66e:	6d c0       	rjmp	.+218    	; 0x74a <__LOCK_REGION_LENGTH__+0x34a>
     670:	ce 01       	movw	r24, r28
     672:	8c 5b       	subi	r24, 0xBC	; 188
     674:	9f 4f       	sbci	r25, 0xFF	; 255
     676:	20 e0       	ldi	r18, 0x00	; 0
     678:	3f ef       	ldi	r19, 0xFF	; 255
     67a:	4f e7       	ldi	r20, 0x7F	; 127
     67c:	57 e4       	ldi	r21, 0x47	; 71
     67e:	fc 01       	movw	r30, r24
     680:	60 81       	ld	r22, Z
     682:	71 81       	ldd	r23, Z+1	; 0x01
     684:	82 81       	ldd	r24, Z+2	; 0x02
     686:	93 81       	ldd	r25, Z+3	; 0x03
     688:	0e 94 9a 17 	call	0x2f34	; 0x2f34 <__gesf2>
     68c:	18 16       	cp	r1, r24
     68e:	0c f0       	brlt	.+2      	; 0x692 <__LOCK_REGION_LENGTH__+0x292>
     690:	4a c0       	rjmp	.+148    	; 0x726 <__LOCK_REGION_LENGTH__+0x326>
     692:	ce 01       	movw	r24, r28
     694:	80 5c       	subi	r24, 0xC0	; 192
     696:	9f 4f       	sbci	r25, 0xFF	; 255
     698:	20 e0       	ldi	r18, 0x00	; 0
     69a:	30 e0       	ldi	r19, 0x00	; 0
     69c:	40 e2       	ldi	r20, 0x20	; 32
     69e:	51 e4       	ldi	r21, 0x41	; 65
     6a0:	fc 01       	movw	r30, r24
     6a2:	60 81       	ld	r22, Z
     6a4:	71 81       	ldd	r23, Z+1	; 0x01
     6a6:	82 81       	ldd	r24, Z+2	; 0x02
     6a8:	93 81       	ldd	r25, Z+3	; 0x03
     6aa:	0e 94 9e 17 	call	0x2f3c	; 0x2f3c <__mulsf3>
     6ae:	dc 01       	movw	r26, r24
     6b0:	cb 01       	movw	r24, r22
     6b2:	8e 01       	movw	r16, r28
     6b4:	08 5b       	subi	r16, 0xB8	; 184
     6b6:	1f 4f       	sbci	r17, 0xFF	; 255
     6b8:	bc 01       	movw	r22, r24
     6ba:	cd 01       	movw	r24, r26
     6bc:	0e 94 bc 16 	call	0x2d78	; 0x2d78 <__fixunssfsi>
     6c0:	dc 01       	movw	r26, r24
     6c2:	cb 01       	movw	r24, r22
     6c4:	f8 01       	movw	r30, r16
     6c6:	91 83       	std	Z+1, r25	; 0x01
     6c8:	80 83       	st	Z, r24
     6ca:	24 c0       	rjmp	.+72     	; 0x714 <__LOCK_REGION_LENGTH__+0x314>
     6cc:	ce 01       	movw	r24, r28
     6ce:	86 5b       	subi	r24, 0xB6	; 182
     6d0:	9f 4f       	sbci	r25, 0xFF	; 255
     6d2:	29 e1       	ldi	r18, 0x19	; 25
     6d4:	30 e0       	ldi	r19, 0x00	; 0
     6d6:	fc 01       	movw	r30, r24
     6d8:	31 83       	std	Z+1, r19	; 0x01
     6da:	20 83       	st	Z, r18
     6dc:	ce 01       	movw	r24, r28
     6de:	86 5b       	subi	r24, 0xB6	; 182
     6e0:	9f 4f       	sbci	r25, 0xFF	; 255
     6e2:	fc 01       	movw	r30, r24
     6e4:	80 81       	ld	r24, Z
     6e6:	91 81       	ldd	r25, Z+1	; 0x01
     6e8:	01 97       	sbiw	r24, 0x01	; 1
     6ea:	f1 f7       	brne	.-4      	; 0x6e8 <__LOCK_REGION_LENGTH__+0x2e8>
     6ec:	9e 01       	movw	r18, r28
     6ee:	26 5b       	subi	r18, 0xB6	; 182
     6f0:	3f 4f       	sbci	r19, 0xFF	; 255
     6f2:	f9 01       	movw	r30, r18
     6f4:	91 83       	std	Z+1, r25	; 0x01
     6f6:	80 83       	st	Z, r24
     6f8:	ce 01       	movw	r24, r28
     6fa:	88 5b       	subi	r24, 0xB8	; 184
     6fc:	9f 4f       	sbci	r25, 0xFF	; 255
     6fe:	9e 01       	movw	r18, r28
     700:	28 5b       	subi	r18, 0xB8	; 184
     702:	3f 4f       	sbci	r19, 0xFF	; 255
     704:	f9 01       	movw	r30, r18
     706:	20 81       	ld	r18, Z
     708:	31 81       	ldd	r19, Z+1	; 0x01
     70a:	21 50       	subi	r18, 0x01	; 1
     70c:	31 09       	sbc	r19, r1
     70e:	fc 01       	movw	r30, r24
     710:	31 83       	std	Z+1, r19	; 0x01
     712:	20 83       	st	Z, r18
     714:	ce 01       	movw	r24, r28
     716:	88 5b       	subi	r24, 0xB8	; 184
     718:	9f 4f       	sbci	r25, 0xFF	; 255
     71a:	fc 01       	movw	r30, r24
     71c:	80 81       	ld	r24, Z
     71e:	91 81       	ldd	r25, Z+1	; 0x01
     720:	89 2b       	or	r24, r25
     722:	a1 f6       	brne	.-88     	; 0x6cc <__LOCK_REGION_LENGTH__+0x2cc>
     724:	6b c0       	rjmp	.+214    	; 0x7fc <__LOCK_REGION_LENGTH__+0x3fc>
     726:	8e 01       	movw	r16, r28
     728:	08 5b       	subi	r16, 0xB8	; 184
     72a:	1f 4f       	sbci	r17, 0xFF	; 255
     72c:	ce 01       	movw	r24, r28
     72e:	8c 5b       	subi	r24, 0xBC	; 188
     730:	9f 4f       	sbci	r25, 0xFF	; 255
     732:	fc 01       	movw	r30, r24
     734:	60 81       	ld	r22, Z
     736:	71 81       	ldd	r23, Z+1	; 0x01
     738:	82 81       	ldd	r24, Z+2	; 0x02
     73a:	93 81       	ldd	r25, Z+3	; 0x03
     73c:	0e 94 bc 16 	call	0x2d78	; 0x2d78 <__fixunssfsi>
     740:	dc 01       	movw	r26, r24
     742:	cb 01       	movw	r24, r22
     744:	f8 01       	movw	r30, r16
     746:	91 83       	std	Z+1, r25	; 0x01
     748:	80 83       	st	Z, r24
     74a:	ce 01       	movw	r24, r28
     74c:	84 5b       	subi	r24, 0xB4	; 180
     74e:	9f 4f       	sbci	r25, 0xFF	; 255
     750:	9e 01       	movw	r18, r28
     752:	28 5b       	subi	r18, 0xB8	; 184
     754:	3f 4f       	sbci	r19, 0xFF	; 255
     756:	f9 01       	movw	r30, r18
     758:	20 81       	ld	r18, Z
     75a:	31 81       	ldd	r19, Z+1	; 0x01
     75c:	fc 01       	movw	r30, r24
     75e:	31 83       	std	Z+1, r19	; 0x01
     760:	20 83       	st	Z, r18
     762:	ce 01       	movw	r24, r28
     764:	84 5b       	subi	r24, 0xB4	; 180
     766:	9f 4f       	sbci	r25, 0xFF	; 255
     768:	fc 01       	movw	r30, r24
     76a:	80 81       	ld	r24, Z
     76c:	91 81       	ldd	r25, Z+1	; 0x01
     76e:	01 97       	sbiw	r24, 0x01	; 1
     770:	f1 f7       	brne	.-4      	; 0x76e <__LOCK_REGION_LENGTH__+0x36e>
     772:	9e 01       	movw	r18, r28
     774:	24 5b       	subi	r18, 0xB4	; 180
     776:	3f 4f       	sbci	r19, 0xFF	; 255
     778:	f9 01       	movw	r30, r18
     77a:	91 83       	std	Z+1, r25	; 0x01
     77c:	80 83       	st	Z, r24
     77e:	3e c0       	rjmp	.+124    	; 0x7fc <__LOCK_REGION_LENGTH__+0x3fc>
     780:	20 e0       	ldi	r18, 0x00	; 0
     782:	30 e0       	ldi	r19, 0x00	; 0
     784:	4f e7       	ldi	r20, 0x7F	; 127
     786:	53 e4       	ldi	r21, 0x43	; 67
     788:	6f a9       	ldd	r22, Y+55	; 0x37
     78a:	78 ad       	ldd	r23, Y+56	; 0x38
     78c:	89 ad       	ldd	r24, Y+57	; 0x39
     78e:	9a ad       	ldd	r25, Y+58	; 0x3a
     790:	0e 94 9a 17 	call	0x2f34	; 0x2f34 <__gesf2>
     794:	18 16       	cp	r1, r24
     796:	4c f5       	brge	.+82     	; 0x7ea <__LOCK_REGION_LENGTH__+0x3ea>
     798:	8e 01       	movw	r16, r28
     79a:	02 5b       	subi	r16, 0xB2	; 178
     79c:	1f 4f       	sbci	r17, 0xFF	; 255
     79e:	6b ad       	ldd	r22, Y+59	; 0x3b
     7a0:	7c ad       	ldd	r23, Y+60	; 0x3c
     7a2:	8d ad       	ldd	r24, Y+61	; 0x3d
     7a4:	9e ad       	ldd	r25, Y+62	; 0x3e
     7a6:	0e 94 bc 16 	call	0x2d78	; 0x2d78 <__fixunssfsi>
     7aa:	dc 01       	movw	r26, r24
     7ac:	cb 01       	movw	r24, r22
     7ae:	f8 01       	movw	r30, r16
     7b0:	91 83       	std	Z+1, r25	; 0x01
     7b2:	80 83       	st	Z, r24
     7b4:	ce 01       	movw	r24, r28
     7b6:	80 5b       	subi	r24, 0xB0	; 176
     7b8:	9f 4f       	sbci	r25, 0xFF	; 255
     7ba:	9e 01       	movw	r18, r28
     7bc:	22 5b       	subi	r18, 0xB2	; 178
     7be:	3f 4f       	sbci	r19, 0xFF	; 255
     7c0:	f9 01       	movw	r30, r18
     7c2:	20 81       	ld	r18, Z
     7c4:	31 81       	ldd	r19, Z+1	; 0x01
     7c6:	fc 01       	movw	r30, r24
     7c8:	31 83       	std	Z+1, r19	; 0x01
     7ca:	20 83       	st	Z, r18
     7cc:	ce 01       	movw	r24, r28
     7ce:	80 5b       	subi	r24, 0xB0	; 176
     7d0:	9f 4f       	sbci	r25, 0xFF	; 255
     7d2:	fc 01       	movw	r30, r24
     7d4:	80 81       	ld	r24, Z
     7d6:	91 81       	ldd	r25, Z+1	; 0x01
     7d8:	01 97       	sbiw	r24, 0x01	; 1
     7da:	f1 f7       	brne	.-4      	; 0x7d8 <__LOCK_REGION_LENGTH__+0x3d8>
     7dc:	9e 01       	movw	r18, r28
     7de:	20 5b       	subi	r18, 0xB0	; 176
     7e0:	3f 4f       	sbci	r19, 0xFF	; 255
     7e2:	f9 01       	movw	r30, r18
     7e4:	91 83       	std	Z+1, r25	; 0x01
     7e6:	80 83       	st	Z, r24
     7e8:	1c c0       	rjmp	.+56     	; 0x822 <__LOCK_REGION_LENGTH__+0x422>
     7ea:	6f a9       	ldd	r22, Y+55	; 0x37
     7ec:	78 ad       	ldd	r23, Y+56	; 0x38
     7ee:	89 ad       	ldd	r24, Y+57	; 0x39
     7f0:	9a ad       	ldd	r25, Y+58	; 0x3a
     7f2:	0e 94 bc 16 	call	0x2d78	; 0x2d78 <__fixunssfsi>
     7f6:	dc 01       	movw	r26, r24
     7f8:	cb 01       	movw	r24, r22
     7fa:	8f af       	std	Y+63, r24	; 0x3f
     7fc:	ce 01       	movw	r24, r28
     7fe:	8e 5a       	subi	r24, 0xAE	; 174
     800:	9f 4f       	sbci	r25, 0xFF	; 255
     802:	2f ad       	ldd	r18, Y+63	; 0x3f
     804:	fc 01       	movw	r30, r24
     806:	20 83       	st	Z, r18
     808:	ce 01       	movw	r24, r28
     80a:	8e 5a       	subi	r24, 0xAE	; 174
     80c:	9f 4f       	sbci	r25, 0xFF	; 255
     80e:	fc 01       	movw	r30, r24
     810:	80 81       	ld	r24, Z
     812:	28 2f       	mov	r18, r24
     814:	2a 95       	dec	r18
     816:	f1 f7       	brne	.-4      	; 0x814 <__LOCK_REGION_LENGTH__+0x414>
     818:	ce 01       	movw	r24, r28
     81a:	8e 5a       	subi	r24, 0xAE	; 174
     81c:	9f 4f       	sbci	r25, 0xFF	; 255
     81e:	fc 01       	movw	r30, r24
     820:	20 83       	st	Z, r18
     822:	8b e2       	ldi	r24, 0x2B	; 43
     824:	90 e0       	ldi	r25, 0x00	; 0
     826:	2b e2       	ldi	r18, 0x2B	; 43
     828:	30 e0       	ldi	r19, 0x00	; 0
     82a:	f9 01       	movw	r30, r18
     82c:	20 81       	ld	r18, Z
     82e:	42 2f       	mov	r20, r18
     830:	4f 70       	andi	r20, 0x0F	; 15
     832:	9e 01       	movw	r18, r28
     834:	21 59       	subi	r18, 0x91	; 145
     836:	3f 4f       	sbci	r19, 0xFF	; 255
     838:	f9 01       	movw	r30, r18
     83a:	20 81       	ld	r18, Z
     83c:	22 2f       	mov	r18, r18
     83e:	30 e0       	ldi	r19, 0x00	; 0
     840:	22 95       	swap	r18
     842:	32 95       	swap	r19
     844:	30 7f       	andi	r19, 0xF0	; 240
     846:	32 27       	eor	r19, r18
     848:	20 7f       	andi	r18, 0xF0	; 240
     84a:	32 27       	eor	r19, r18
     84c:	24 2b       	or	r18, r20
     84e:	fc 01       	movw	r30, r24
     850:	20 83       	st	Z, r18
     852:	8b e2       	ldi	r24, 0x2B	; 43
     854:	90 e0       	ldi	r25, 0x00	; 0
     856:	2b e2       	ldi	r18, 0x2B	; 43
     858:	30 e0       	ldi	r19, 0x00	; 0
     85a:	f9 01       	movw	r30, r18
     85c:	20 81       	ld	r18, Z
     85e:	28 60       	ori	r18, 0x08	; 8
     860:	fc 01       	movw	r30, r24
     862:	20 83       	st	Z, r18
     864:	80 e0       	ldi	r24, 0x00	; 0
     866:	90 e0       	ldi	r25, 0x00	; 0
     868:	a0 e8       	ldi	r26, 0x80	; 128
     86a:	bf e3       	ldi	r27, 0x3F	; 63
     86c:	89 87       	std	Y+9, r24	; 0x09
     86e:	9a 87       	std	Y+10, r25	; 0x0a
     870:	ab 87       	std	Y+11, r26	; 0x0b
     872:	bc 87       	std	Y+12, r27	; 0x0c
     874:	2b ea       	ldi	r18, 0xAB	; 171
     876:	3a ea       	ldi	r19, 0xAA	; 170
     878:	4a ea       	ldi	r20, 0xAA	; 170
     87a:	5e e3       	ldi	r21, 0x3E	; 62
     87c:	69 85       	ldd	r22, Y+9	; 0x09
     87e:	7a 85       	ldd	r23, Y+10	; 0x0a
     880:	8b 85       	ldd	r24, Y+11	; 0x0b
     882:	9c 85       	ldd	r25, Y+12	; 0x0c
     884:	0e 94 9e 17 	call	0x2f3c	; 0x2f3c <__mulsf3>
     888:	dc 01       	movw	r26, r24
     88a:	cb 01       	movw	r24, r22
     88c:	8b 8f       	std	Y+27, r24	; 0x1b
     88e:	9c 8f       	std	Y+28, r25	; 0x1c
     890:	ad 8f       	std	Y+29, r26	; 0x1d
     892:	be 8f       	std	Y+30, r27	; 0x1e
     894:	20 e0       	ldi	r18, 0x00	; 0
     896:	30 e0       	ldi	r19, 0x00	; 0
     898:	40 e8       	ldi	r20, 0x80	; 128
     89a:	5e e3       	ldi	r21, 0x3E	; 62
     89c:	69 85       	ldd	r22, Y+9	; 0x09
     89e:	7a 85       	ldd	r23, Y+10	; 0x0a
     8a0:	8b 85       	ldd	r24, Y+11	; 0x0b
     8a2:	9c 85       	ldd	r25, Y+12	; 0x0c
     8a4:	0e 94 9e 17 	call	0x2f3c	; 0x2f3c <__mulsf3>
     8a8:	dc 01       	movw	r26, r24
     8aa:	cb 01       	movw	r24, r22
     8ac:	8f 8f       	std	Y+31, r24	; 0x1f
     8ae:	98 a3       	std	Y+32, r25	; 0x20
     8b0:	a9 a3       	std	Y+33, r26	; 0x21
     8b2:	ba a3       	std	Y+34, r27	; 0x22
     8b4:	20 e0       	ldi	r18, 0x00	; 0
     8b6:	30 e0       	ldi	r19, 0x00	; 0
     8b8:	40 e8       	ldi	r20, 0x80	; 128
     8ba:	5f e3       	ldi	r21, 0x3F	; 63
     8bc:	6b 8d       	ldd	r22, Y+27	; 0x1b
     8be:	7c 8d       	ldd	r23, Y+28	; 0x1c
     8c0:	8d 8d       	ldd	r24, Y+29	; 0x1d
     8c2:	9e 8d       	ldd	r25, Y+30	; 0x1e
     8c4:	0e 94 4b 16 	call	0x2c96	; 0x2c96 <__cmpsf2>
     8c8:	88 23       	and	r24, r24
     8ca:	1c f4       	brge	.+6      	; 0x8d2 <__LOCK_REGION_LENGTH__+0x4d2>
     8cc:	81 e0       	ldi	r24, 0x01	; 1
     8ce:	8b a3       	std	Y+35, r24	; 0x23
     8d0:	b2 c0       	rjmp	.+356    	; 0xa36 <__LOCK_REGION_LENGTH__+0x636>
     8d2:	20 e0       	ldi	r18, 0x00	; 0
     8d4:	3f ef       	ldi	r19, 0xFF	; 255
     8d6:	4f e7       	ldi	r20, 0x7F	; 127
     8d8:	57 e4       	ldi	r21, 0x47	; 71
     8da:	6f 8d       	ldd	r22, Y+31	; 0x1f
     8dc:	78 a1       	ldd	r23, Y+32	; 0x20
     8de:	89 a1       	ldd	r24, Y+33	; 0x21
     8e0:	9a a1       	ldd	r25, Y+34	; 0x22
     8e2:	0e 94 9a 17 	call	0x2f34	; 0x2f34 <__gesf2>
     8e6:	18 16       	cp	r1, r24
     8e8:	0c f0       	brlt	.+2      	; 0x8ec <__LOCK_REGION_LENGTH__+0x4ec>
     8ea:	7b c0       	rjmp	.+246    	; 0x9e2 <__LOCK_REGION_LENGTH__+0x5e2>
     8ec:	20 e0       	ldi	r18, 0x00	; 0
     8ee:	30 e0       	ldi	r19, 0x00	; 0
     8f0:	4a e7       	ldi	r20, 0x7A	; 122
     8f2:	54 e4       	ldi	r21, 0x44	; 68
     8f4:	69 85       	ldd	r22, Y+9	; 0x09
     8f6:	7a 85       	ldd	r23, Y+10	; 0x0a
     8f8:	8b 85       	ldd	r24, Y+11	; 0x0b
     8fa:	9c 85       	ldd	r25, Y+12	; 0x0c
     8fc:	0e 94 4f 16 	call	0x2c9e	; 0x2c9e <__divsf3>
     900:	dc 01       	movw	r26, r24
     902:	cb 01       	movw	r24, r22
     904:	8c a3       	std	Y+36, r24	; 0x24
     906:	9d a3       	std	Y+37, r25	; 0x25
     908:	ae a3       	std	Y+38, r26	; 0x26
     90a:	bf a3       	std	Y+39, r27	; 0x27
     90c:	20 e0       	ldi	r18, 0x00	; 0
     90e:	30 e0       	ldi	r19, 0x00	; 0
     910:	4a e7       	ldi	r20, 0x7A	; 122
     912:	53 e4       	ldi	r21, 0x43	; 67
     914:	6c a1       	ldd	r22, Y+36	; 0x24
     916:	7d a1       	ldd	r23, Y+37	; 0x25
     918:	8e a1       	ldd	r24, Y+38	; 0x26
     91a:	9f a1       	ldd	r25, Y+39	; 0x27
     91c:	0e 94 9e 17 	call	0x2f3c	; 0x2f3c <__mulsf3>
     920:	dc 01       	movw	r26, r24
     922:	cb 01       	movw	r24, r22
     924:	88 a7       	std	Y+40, r24	; 0x28
     926:	99 a7       	std	Y+41, r25	; 0x29
     928:	aa a7       	std	Y+42, r26	; 0x2a
     92a:	bb a7       	std	Y+43, r27	; 0x2b
     92c:	20 e0       	ldi	r18, 0x00	; 0
     92e:	30 e0       	ldi	r19, 0x00	; 0
     930:	40 e8       	ldi	r20, 0x80	; 128
     932:	5f e3       	ldi	r21, 0x3F	; 63
     934:	68 a5       	ldd	r22, Y+40	; 0x28
     936:	79 a5       	ldd	r23, Y+41	; 0x29
     938:	8a a5       	ldd	r24, Y+42	; 0x2a
     93a:	9b a5       	ldd	r25, Y+43	; 0x2b
     93c:	0e 94 4b 16 	call	0x2c96	; 0x2c96 <__cmpsf2>
     940:	88 23       	and	r24, r24
     942:	2c f4       	brge	.+10     	; 0x94e <__LOCK_REGION_LENGTH__+0x54e>
     944:	81 e0       	ldi	r24, 0x01	; 1
     946:	90 e0       	ldi	r25, 0x00	; 0
     948:	9d a7       	std	Y+45, r25	; 0x2d
     94a:	8c a7       	std	Y+44, r24	; 0x2c
     94c:	3f c0       	rjmp	.+126    	; 0x9cc <__LOCK_REGION_LENGTH__+0x5cc>
     94e:	20 e0       	ldi	r18, 0x00	; 0
     950:	3f ef       	ldi	r19, 0xFF	; 255
     952:	4f e7       	ldi	r20, 0x7F	; 127
     954:	57 e4       	ldi	r21, 0x47	; 71
     956:	68 a5       	ldd	r22, Y+40	; 0x28
     958:	79 a5       	ldd	r23, Y+41	; 0x29
     95a:	8a a5       	ldd	r24, Y+42	; 0x2a
     95c:	9b a5       	ldd	r25, Y+43	; 0x2b
     95e:	0e 94 9a 17 	call	0x2f34	; 0x2f34 <__gesf2>
     962:	18 16       	cp	r1, r24
     964:	4c f5       	brge	.+82     	; 0x9b8 <__LOCK_REGION_LENGTH__+0x5b8>
     966:	20 e0       	ldi	r18, 0x00	; 0
     968:	30 e0       	ldi	r19, 0x00	; 0
     96a:	40 e2       	ldi	r20, 0x20	; 32
     96c:	51 e4       	ldi	r21, 0x41	; 65
     96e:	6c a1       	ldd	r22, Y+36	; 0x24
     970:	7d a1       	ldd	r23, Y+37	; 0x25
     972:	8e a1       	ldd	r24, Y+38	; 0x26
     974:	9f a1       	ldd	r25, Y+39	; 0x27
     976:	0e 94 9e 17 	call	0x2f3c	; 0x2f3c <__mulsf3>
     97a:	dc 01       	movw	r26, r24
     97c:	cb 01       	movw	r24, r22
     97e:	bc 01       	movw	r22, r24
     980:	cd 01       	movw	r24, r26
     982:	0e 94 bc 16 	call	0x2d78	; 0x2d78 <__fixunssfsi>
     986:	dc 01       	movw	r26, r24
     988:	cb 01       	movw	r24, r22
     98a:	9d a7       	std	Y+45, r25	; 0x2d
     98c:	8c a7       	std	Y+44, r24	; 0x2c
     98e:	0f c0       	rjmp	.+30     	; 0x9ae <__LOCK_REGION_LENGTH__+0x5ae>
     990:	89 e1       	ldi	r24, 0x19	; 25
     992:	90 e0       	ldi	r25, 0x00	; 0
     994:	9f a7       	std	Y+47, r25	; 0x2f
     996:	8e a7       	std	Y+46, r24	; 0x2e
     998:	8e a5       	ldd	r24, Y+46	; 0x2e
     99a:	9f a5       	ldd	r25, Y+47	; 0x2f
     99c:	01 97       	sbiw	r24, 0x01	; 1
     99e:	f1 f7       	brne	.-4      	; 0x99c <__LOCK_REGION_LENGTH__+0x59c>
     9a0:	9f a7       	std	Y+47, r25	; 0x2f
     9a2:	8e a7       	std	Y+46, r24	; 0x2e
     9a4:	8c a5       	ldd	r24, Y+44	; 0x2c
     9a6:	9d a5       	ldd	r25, Y+45	; 0x2d
     9a8:	01 97       	sbiw	r24, 0x01	; 1
     9aa:	9d a7       	std	Y+45, r25	; 0x2d
     9ac:	8c a7       	std	Y+44, r24	; 0x2c
     9ae:	8c a5       	ldd	r24, Y+44	; 0x2c
     9b0:	9d a5       	ldd	r25, Y+45	; 0x2d
     9b2:	89 2b       	or	r24, r25
     9b4:	69 f7       	brne	.-38     	; 0x990 <__LOCK_REGION_LENGTH__+0x590>
     9b6:	3f c0       	rjmp	.+126    	; 0xa36 <__LOCK_REGION_LENGTH__+0x636>
     9b8:	68 a5       	ldd	r22, Y+40	; 0x28
     9ba:	79 a5       	ldd	r23, Y+41	; 0x29
     9bc:	8a a5       	ldd	r24, Y+42	; 0x2a
     9be:	9b a5       	ldd	r25, Y+43	; 0x2b
     9c0:	0e 94 bc 16 	call	0x2d78	; 0x2d78 <__fixunssfsi>
     9c4:	dc 01       	movw	r26, r24
     9c6:	cb 01       	movw	r24, r22
     9c8:	9d a7       	std	Y+45, r25	; 0x2d
     9ca:	8c a7       	std	Y+44, r24	; 0x2c
     9cc:	8c a5       	ldd	r24, Y+44	; 0x2c
     9ce:	9d a5       	ldd	r25, Y+45	; 0x2d
     9d0:	99 ab       	std	Y+49, r25	; 0x31
     9d2:	88 ab       	std	Y+48, r24	; 0x30
     9d4:	88 a9       	ldd	r24, Y+48	; 0x30
     9d6:	99 a9       	ldd	r25, Y+49	; 0x31
     9d8:	01 97       	sbiw	r24, 0x01	; 1
     9da:	f1 f7       	brne	.-4      	; 0x9d8 <__LOCK_REGION_LENGTH__+0x5d8>
     9dc:	99 ab       	std	Y+49, r25	; 0x31
     9de:	88 ab       	std	Y+48, r24	; 0x30
     9e0:	2a c0       	rjmp	.+84     	; 0xa36 <__LOCK_REGION_LENGTH__+0x636>
     9e2:	20 e0       	ldi	r18, 0x00	; 0
     9e4:	30 e0       	ldi	r19, 0x00	; 0
     9e6:	4f e7       	ldi	r20, 0x7F	; 127
     9e8:	53 e4       	ldi	r21, 0x43	; 67
     9ea:	6b 8d       	ldd	r22, Y+27	; 0x1b
     9ec:	7c 8d       	ldd	r23, Y+28	; 0x1c
     9ee:	8d 8d       	ldd	r24, Y+29	; 0x1d
     9f0:	9e 8d       	ldd	r25, Y+30	; 0x1e
     9f2:	0e 94 9a 17 	call	0x2f34	; 0x2f34 <__gesf2>
     9f6:	18 16       	cp	r1, r24
     9f8:	ac f4       	brge	.+42     	; 0xa24 <__LOCK_REGION_LENGTH__+0x624>
     9fa:	6f 8d       	ldd	r22, Y+31	; 0x1f
     9fc:	78 a1       	ldd	r23, Y+32	; 0x20
     9fe:	89 a1       	ldd	r24, Y+33	; 0x21
     a00:	9a a1       	ldd	r25, Y+34	; 0x22
     a02:	0e 94 bc 16 	call	0x2d78	; 0x2d78 <__fixunssfsi>
     a06:	dc 01       	movw	r26, r24
     a08:	cb 01       	movw	r24, r22
     a0a:	9b ab       	std	Y+51, r25	; 0x33
     a0c:	8a ab       	std	Y+50, r24	; 0x32
     a0e:	8a a9       	ldd	r24, Y+50	; 0x32
     a10:	9b a9       	ldd	r25, Y+51	; 0x33
     a12:	9d ab       	std	Y+53, r25	; 0x35
     a14:	8c ab       	std	Y+52, r24	; 0x34
     a16:	8c a9       	ldd	r24, Y+52	; 0x34
     a18:	9d a9       	ldd	r25, Y+53	; 0x35
     a1a:	01 97       	sbiw	r24, 0x01	; 1
     a1c:	f1 f7       	brne	.-4      	; 0xa1a <__LOCK_REGION_LENGTH__+0x61a>
     a1e:	9d ab       	std	Y+53, r25	; 0x35
     a20:	8c ab       	std	Y+52, r24	; 0x34
     a22:	0f c0       	rjmp	.+30     	; 0xa42 <__LOCK_REGION_LENGTH__+0x642>
     a24:	6b 8d       	ldd	r22, Y+27	; 0x1b
     a26:	7c 8d       	ldd	r23, Y+28	; 0x1c
     a28:	8d 8d       	ldd	r24, Y+29	; 0x1d
     a2a:	9e 8d       	ldd	r25, Y+30	; 0x1e
     a2c:	0e 94 bc 16 	call	0x2d78	; 0x2d78 <__fixunssfsi>
     a30:	dc 01       	movw	r26, r24
     a32:	cb 01       	movw	r24, r22
     a34:	8b a3       	std	Y+35, r24	; 0x23
     a36:	8b a1       	ldd	r24, Y+35	; 0x23
     a38:	8e ab       	std	Y+54, r24	; 0x36
     a3a:	8e a9       	ldd	r24, Y+54	; 0x36
     a3c:	8a 95       	dec	r24
     a3e:	f1 f7       	brne	.-4      	; 0xa3c <__LOCK_REGION_LENGTH__+0x63c>
     a40:	8e ab       	std	Y+54, r24	; 0x36
     a42:	8b e2       	ldi	r24, 0x2B	; 43
     a44:	90 e0       	ldi	r25, 0x00	; 0
     a46:	2b e2       	ldi	r18, 0x2B	; 43
     a48:	30 e0       	ldi	r19, 0x00	; 0
     a4a:	f9 01       	movw	r30, r18
     a4c:	20 81       	ld	r18, Z
     a4e:	27 7f       	andi	r18, 0xF7	; 247
     a50:	fc 01       	movw	r30, r24
     a52:	20 83       	st	Z, r18
     a54:	80 e0       	ldi	r24, 0x00	; 0
     a56:	90 e0       	ldi	r25, 0x00	; 0
     a58:	a0 e0       	ldi	r26, 0x00	; 0
     a5a:	b0 e4       	ldi	r27, 0x40	; 64
     a5c:	8d 87       	std	Y+13, r24	; 0x0d
     a5e:	9e 87       	std	Y+14, r25	; 0x0e
     a60:	af 87       	std	Y+15, r26	; 0x0f
     a62:	b8 8b       	std	Y+16, r27	; 0x10
     a64:	20 e0       	ldi	r18, 0x00	; 0
     a66:	30 e0       	ldi	r19, 0x00	; 0
     a68:	4a e7       	ldi	r20, 0x7A	; 122
     a6a:	53 e4       	ldi	r21, 0x43	; 67
     a6c:	6d 85       	ldd	r22, Y+13	; 0x0d
     a6e:	7e 85       	ldd	r23, Y+14	; 0x0e
     a70:	8f 85       	ldd	r24, Y+15	; 0x0f
     a72:	98 89       	ldd	r25, Y+16	; 0x10
     a74:	0e 94 9e 17 	call	0x2f3c	; 0x2f3c <__mulsf3>
     a78:	dc 01       	movw	r26, r24
     a7a:	cb 01       	movw	r24, r22
     a7c:	89 8b       	std	Y+17, r24	; 0x11
     a7e:	9a 8b       	std	Y+18, r25	; 0x12
     a80:	ab 8b       	std	Y+19, r26	; 0x13
     a82:	bc 8b       	std	Y+20, r27	; 0x14
     a84:	20 e0       	ldi	r18, 0x00	; 0
     a86:	30 e0       	ldi	r19, 0x00	; 0
     a88:	40 e8       	ldi	r20, 0x80	; 128
     a8a:	5f e3       	ldi	r21, 0x3F	; 63
     a8c:	69 89       	ldd	r22, Y+17	; 0x11
     a8e:	7a 89       	ldd	r23, Y+18	; 0x12
     a90:	8b 89       	ldd	r24, Y+19	; 0x13
     a92:	9c 89       	ldd	r25, Y+20	; 0x14
     a94:	0e 94 4b 16 	call	0x2c96	; 0x2c96 <__cmpsf2>
     a98:	88 23       	and	r24, r24
     a9a:	2c f4       	brge	.+10     	; 0xaa6 <__LOCK_REGION_LENGTH__+0x6a6>
     a9c:	81 e0       	ldi	r24, 0x01	; 1
     a9e:	90 e0       	ldi	r25, 0x00	; 0
     aa0:	9e 8b       	std	Y+22, r25	; 0x16
     aa2:	8d 8b       	std	Y+21, r24	; 0x15
     aa4:	3f c0       	rjmp	.+126    	; 0xb24 <__LOCK_REGION_LENGTH__+0x724>
     aa6:	20 e0       	ldi	r18, 0x00	; 0
     aa8:	3f ef       	ldi	r19, 0xFF	; 255
     aaa:	4f e7       	ldi	r20, 0x7F	; 127
     aac:	57 e4       	ldi	r21, 0x47	; 71
     aae:	69 89       	ldd	r22, Y+17	; 0x11
     ab0:	7a 89       	ldd	r23, Y+18	; 0x12
     ab2:	8b 89       	ldd	r24, Y+19	; 0x13
     ab4:	9c 89       	ldd	r25, Y+20	; 0x14
     ab6:	0e 94 9a 17 	call	0x2f34	; 0x2f34 <__gesf2>
     aba:	18 16       	cp	r1, r24
     abc:	4c f5       	brge	.+82     	; 0xb10 <__LOCK_REGION_LENGTH__+0x710>
     abe:	20 e0       	ldi	r18, 0x00	; 0
     ac0:	30 e0       	ldi	r19, 0x00	; 0
     ac2:	40 e2       	ldi	r20, 0x20	; 32
     ac4:	51 e4       	ldi	r21, 0x41	; 65
     ac6:	6d 85       	ldd	r22, Y+13	; 0x0d
     ac8:	7e 85       	ldd	r23, Y+14	; 0x0e
     aca:	8f 85       	ldd	r24, Y+15	; 0x0f
     acc:	98 89       	ldd	r25, Y+16	; 0x10
     ace:	0e 94 9e 17 	call	0x2f3c	; 0x2f3c <__mulsf3>
     ad2:	dc 01       	movw	r26, r24
     ad4:	cb 01       	movw	r24, r22
     ad6:	bc 01       	movw	r22, r24
     ad8:	cd 01       	movw	r24, r26
     ada:	0e 94 bc 16 	call	0x2d78	; 0x2d78 <__fixunssfsi>
     ade:	dc 01       	movw	r26, r24
     ae0:	cb 01       	movw	r24, r22
     ae2:	9e 8b       	std	Y+22, r25	; 0x16
     ae4:	8d 8b       	std	Y+21, r24	; 0x15
     ae6:	0f c0       	rjmp	.+30     	; 0xb06 <__LOCK_REGION_LENGTH__+0x706>
     ae8:	89 e1       	ldi	r24, 0x19	; 25
     aea:	90 e0       	ldi	r25, 0x00	; 0
     aec:	98 8f       	std	Y+24, r25	; 0x18
     aee:	8f 8b       	std	Y+23, r24	; 0x17
     af0:	8f 89       	ldd	r24, Y+23	; 0x17
     af2:	98 8d       	ldd	r25, Y+24	; 0x18
     af4:	01 97       	sbiw	r24, 0x01	; 1
     af6:	f1 f7       	brne	.-4      	; 0xaf4 <__LOCK_REGION_LENGTH__+0x6f4>
     af8:	98 8f       	std	Y+24, r25	; 0x18
     afa:	8f 8b       	std	Y+23, r24	; 0x17
     afc:	8d 89       	ldd	r24, Y+21	; 0x15
     afe:	9e 89       	ldd	r25, Y+22	; 0x16
     b00:	01 97       	sbiw	r24, 0x01	; 1
     b02:	9e 8b       	std	Y+22, r25	; 0x16
     b04:	8d 8b       	std	Y+21, r24	; 0x15
     b06:	8d 89       	ldd	r24, Y+21	; 0x15
     b08:	9e 89       	ldd	r25, Y+22	; 0x16
     b0a:	89 2b       	or	r24, r25
     b0c:	69 f7       	brne	.-38     	; 0xae8 <__LOCK_REGION_LENGTH__+0x6e8>
     b0e:	14 c0       	rjmp	.+40     	; 0xb38 <__LOCK_REGION_LENGTH__+0x738>
     b10:	69 89       	ldd	r22, Y+17	; 0x11
     b12:	7a 89       	ldd	r23, Y+18	; 0x12
     b14:	8b 89       	ldd	r24, Y+19	; 0x13
     b16:	9c 89       	ldd	r25, Y+20	; 0x14
     b18:	0e 94 bc 16 	call	0x2d78	; 0x2d78 <__fixunssfsi>
     b1c:	dc 01       	movw	r26, r24
     b1e:	cb 01       	movw	r24, r22
     b20:	9e 8b       	std	Y+22, r25	; 0x16
     b22:	8d 8b       	std	Y+21, r24	; 0x15
     b24:	8d 89       	ldd	r24, Y+21	; 0x15
     b26:	9e 89       	ldd	r25, Y+22	; 0x16
     b28:	9a 8f       	std	Y+26, r25	; 0x1a
     b2a:	89 8f       	std	Y+25, r24	; 0x19
     b2c:	89 8d       	ldd	r24, Y+25	; 0x19
     b2e:	9a 8d       	ldd	r25, Y+26	; 0x1a
     b30:	01 97       	sbiw	r24, 0x01	; 1
     b32:	f1 f7       	brne	.-4      	; 0xb30 <__LOCK_REGION_LENGTH__+0x730>
     b34:	9a 8f       	std	Y+26, r25	; 0x1a
     b36:	89 8f       	std	Y+25, r24	; 0x19
     b38:	00 00       	nop
     b3a:	c1 59       	subi	r28, 0x91	; 145
     b3c:	df 4f       	sbci	r29, 0xFF	; 255
     b3e:	0f b6       	in	r0, 0x3f	; 63
     b40:	f8 94       	cli
     b42:	de bf       	out	0x3e, r29	; 62
     b44:	0f be       	out	0x3f, r0	; 63
     b46:	cd bf       	out	0x3d, r28	; 61
     b48:	df 91       	pop	r29
     b4a:	cf 91       	pop	r28
     b4c:	1f 91       	pop	r17
     b4e:	0f 91       	pop	r16
     b50:	08 95       	ret

00000b52 <LCD_Char>:
     b52:	0f 93       	push	r16
     b54:	1f 93       	push	r17
     b56:	cf 93       	push	r28
     b58:	df 93       	push	r29
     b5a:	cd b7       	in	r28, 0x3d	; 61
     b5c:	de b7       	in	r29, 0x3e	; 62
     b5e:	cf 56       	subi	r28, 0x6F	; 111
     b60:	d1 09       	sbc	r29, r1
     b62:	0f b6       	in	r0, 0x3f	; 63
     b64:	f8 94       	cli
     b66:	de bf       	out	0x3e, r29	; 62
     b68:	0f be       	out	0x3f, r0	; 63
     b6a:	cd bf       	out	0x3d, r28	; 61
     b6c:	9e 01       	movw	r18, r28
     b6e:	21 59       	subi	r18, 0x91	; 145
     b70:	3f 4f       	sbci	r19, 0xFF	; 255
     b72:	f9 01       	movw	r30, r18
     b74:	80 83       	st	Z, r24
     b76:	8b e2       	ldi	r24, 0x2B	; 43
     b78:	90 e0       	ldi	r25, 0x00	; 0
     b7a:	2b e2       	ldi	r18, 0x2B	; 43
     b7c:	30 e0       	ldi	r19, 0x00	; 0
     b7e:	f9 01       	movw	r30, r18
     b80:	20 81       	ld	r18, Z
     b82:	42 2f       	mov	r20, r18
     b84:	4f 70       	andi	r20, 0x0F	; 15
     b86:	9e 01       	movw	r18, r28
     b88:	21 59       	subi	r18, 0x91	; 145
     b8a:	3f 4f       	sbci	r19, 0xFF	; 255
     b8c:	f9 01       	movw	r30, r18
     b8e:	20 81       	ld	r18, Z
     b90:	20 7f       	andi	r18, 0xF0	; 240
     b92:	24 2b       	or	r18, r20
     b94:	fc 01       	movw	r30, r24
     b96:	20 83       	st	Z, r18
     b98:	8b e2       	ldi	r24, 0x2B	; 43
     b9a:	90 e0       	ldi	r25, 0x00	; 0
     b9c:	2b e2       	ldi	r18, 0x2B	; 43
     b9e:	30 e0       	ldi	r19, 0x00	; 0
     ba0:	f9 01       	movw	r30, r18
     ba2:	20 81       	ld	r18, Z
     ba4:	24 60       	ori	r18, 0x04	; 4
     ba6:	fc 01       	movw	r30, r24
     ba8:	20 83       	st	Z, r18
     baa:	8b e2       	ldi	r24, 0x2B	; 43
     bac:	90 e0       	ldi	r25, 0x00	; 0
     bae:	2b e2       	ldi	r18, 0x2B	; 43
     bb0:	30 e0       	ldi	r19, 0x00	; 0
     bb2:	f9 01       	movw	r30, r18
     bb4:	20 81       	ld	r18, Z
     bb6:	28 60       	ori	r18, 0x08	; 8
     bb8:	fc 01       	movw	r30, r24
     bba:	20 83       	st	Z, r18
     bbc:	80 e0       	ldi	r24, 0x00	; 0
     bbe:	90 e0       	ldi	r25, 0x00	; 0
     bc0:	a0 e8       	ldi	r26, 0x80	; 128
     bc2:	bf e3       	ldi	r27, 0x3F	; 63
     bc4:	89 83       	std	Y+1, r24	; 0x01
     bc6:	9a 83       	std	Y+2, r25	; 0x02
     bc8:	ab 83       	std	Y+3, r26	; 0x03
     bca:	bc 83       	std	Y+4, r27	; 0x04
     bcc:	8e 01       	movw	r16, r28
     bce:	0d 5a       	subi	r16, 0xAD	; 173
     bd0:	1f 4f       	sbci	r17, 0xFF	; 255
     bd2:	2b ea       	ldi	r18, 0xAB	; 171
     bd4:	3a ea       	ldi	r19, 0xAA	; 170
     bd6:	4a ea       	ldi	r20, 0xAA	; 170
     bd8:	5e e3       	ldi	r21, 0x3E	; 62
     bda:	69 81       	ldd	r22, Y+1	; 0x01
     bdc:	7a 81       	ldd	r23, Y+2	; 0x02
     bde:	8b 81       	ldd	r24, Y+3	; 0x03
     be0:	9c 81       	ldd	r25, Y+4	; 0x04
     be2:	0e 94 9e 17 	call	0x2f3c	; 0x2f3c <__mulsf3>
     be6:	dc 01       	movw	r26, r24
     be8:	cb 01       	movw	r24, r22
     bea:	f8 01       	movw	r30, r16
     bec:	80 83       	st	Z, r24
     bee:	91 83       	std	Z+1, r25	; 0x01
     bf0:	a2 83       	std	Z+2, r26	; 0x02
     bf2:	b3 83       	std	Z+3, r27	; 0x03
     bf4:	8e 01       	movw	r16, r28
     bf6:	09 5a       	subi	r16, 0xA9	; 169
     bf8:	1f 4f       	sbci	r17, 0xFF	; 255
     bfa:	20 e0       	ldi	r18, 0x00	; 0
     bfc:	30 e0       	ldi	r19, 0x00	; 0
     bfe:	40 e8       	ldi	r20, 0x80	; 128
     c00:	5e e3       	ldi	r21, 0x3E	; 62
     c02:	69 81       	ldd	r22, Y+1	; 0x01
     c04:	7a 81       	ldd	r23, Y+2	; 0x02
     c06:	8b 81       	ldd	r24, Y+3	; 0x03
     c08:	9c 81       	ldd	r25, Y+4	; 0x04
     c0a:	0e 94 9e 17 	call	0x2f3c	; 0x2f3c <__mulsf3>
     c0e:	dc 01       	movw	r26, r24
     c10:	cb 01       	movw	r24, r22
     c12:	f8 01       	movw	r30, r16
     c14:	80 83       	st	Z, r24
     c16:	91 83       	std	Z+1, r25	; 0x01
     c18:	a2 83       	std	Z+2, r26	; 0x02
     c1a:	b3 83       	std	Z+3, r27	; 0x03
     c1c:	ce 01       	movw	r24, r28
     c1e:	8d 5a       	subi	r24, 0xAD	; 173
     c20:	9f 4f       	sbci	r25, 0xFF	; 255
     c22:	20 e0       	ldi	r18, 0x00	; 0
     c24:	30 e0       	ldi	r19, 0x00	; 0
     c26:	40 e8       	ldi	r20, 0x80	; 128
     c28:	5f e3       	ldi	r21, 0x3F	; 63
     c2a:	fc 01       	movw	r30, r24
     c2c:	60 81       	ld	r22, Z
     c2e:	71 81       	ldd	r23, Z+1	; 0x01
     c30:	82 81       	ldd	r24, Z+2	; 0x02
     c32:	93 81       	ldd	r25, Z+3	; 0x03
     c34:	0e 94 4b 16 	call	0x2c96	; 0x2c96 <__cmpsf2>
     c38:	88 23       	and	r24, r24
     c3a:	3c f4       	brge	.+14     	; 0xc4a <LCD_Char+0xf8>
     c3c:	ce 01       	movw	r24, r28
     c3e:	85 5a       	subi	r24, 0xA5	; 165
     c40:	9f 4f       	sbci	r25, 0xFF	; 255
     c42:	21 e0       	ldi	r18, 0x01	; 1
     c44:	fc 01       	movw	r30, r24
     c46:	20 83       	st	Z, r18
     c48:	2c c1       	rjmp	.+600    	; 0xea2 <LCD_Char+0x350>
     c4a:	ce 01       	movw	r24, r28
     c4c:	89 5a       	subi	r24, 0xA9	; 169
     c4e:	9f 4f       	sbci	r25, 0xFF	; 255
     c50:	20 e0       	ldi	r18, 0x00	; 0
     c52:	3f ef       	ldi	r19, 0xFF	; 255
     c54:	4f e7       	ldi	r20, 0x7F	; 127
     c56:	57 e4       	ldi	r21, 0x47	; 71
     c58:	fc 01       	movw	r30, r24
     c5a:	60 81       	ld	r22, Z
     c5c:	71 81       	ldd	r23, Z+1	; 0x01
     c5e:	82 81       	ldd	r24, Z+2	; 0x02
     c60:	93 81       	ldd	r25, Z+3	; 0x03
     c62:	0e 94 9a 17 	call	0x2f34	; 0x2f34 <__gesf2>
     c66:	18 16       	cp	r1, r24
     c68:	0c f0       	brlt	.+2      	; 0xc6c <LCD_Char+0x11a>
     c6a:	cd c0       	rjmp	.+410    	; 0xe06 <LCD_Char+0x2b4>
     c6c:	20 e0       	ldi	r18, 0x00	; 0
     c6e:	30 e0       	ldi	r19, 0x00	; 0
     c70:	4a e7       	ldi	r20, 0x7A	; 122
     c72:	54 e4       	ldi	r21, 0x44	; 68
     c74:	69 81       	ldd	r22, Y+1	; 0x01
     c76:	7a 81       	ldd	r23, Y+2	; 0x02
     c78:	8b 81       	ldd	r24, Y+3	; 0x03
     c7a:	9c 81       	ldd	r25, Y+4	; 0x04
     c7c:	0e 94 4f 16 	call	0x2c9e	; 0x2c9e <__divsf3>
     c80:	dc 01       	movw	r26, r24
     c82:	cb 01       	movw	r24, r22
     c84:	9e 01       	movw	r18, r28
     c86:	24 5a       	subi	r18, 0xA4	; 164
     c88:	3f 4f       	sbci	r19, 0xFF	; 255
     c8a:	f9 01       	movw	r30, r18
     c8c:	80 83       	st	Z, r24
     c8e:	91 83       	std	Z+1, r25	; 0x01
     c90:	a2 83       	std	Z+2, r26	; 0x02
     c92:	b3 83       	std	Z+3, r27	; 0x03
     c94:	8e 01       	movw	r16, r28
     c96:	00 5a       	subi	r16, 0xA0	; 160
     c98:	1f 4f       	sbci	r17, 0xFF	; 255
     c9a:	ce 01       	movw	r24, r28
     c9c:	84 5a       	subi	r24, 0xA4	; 164
     c9e:	9f 4f       	sbci	r25, 0xFF	; 255
     ca0:	20 e0       	ldi	r18, 0x00	; 0
     ca2:	30 e0       	ldi	r19, 0x00	; 0
     ca4:	4a e7       	ldi	r20, 0x7A	; 122
     ca6:	53 e4       	ldi	r21, 0x43	; 67
     ca8:	fc 01       	movw	r30, r24
     caa:	60 81       	ld	r22, Z
     cac:	71 81       	ldd	r23, Z+1	; 0x01
     cae:	82 81       	ldd	r24, Z+2	; 0x02
     cb0:	93 81       	ldd	r25, Z+3	; 0x03
     cb2:	0e 94 9e 17 	call	0x2f3c	; 0x2f3c <__mulsf3>
     cb6:	dc 01       	movw	r26, r24
     cb8:	cb 01       	movw	r24, r22
     cba:	f8 01       	movw	r30, r16
     cbc:	80 83       	st	Z, r24
     cbe:	91 83       	std	Z+1, r25	; 0x01
     cc0:	a2 83       	std	Z+2, r26	; 0x02
     cc2:	b3 83       	std	Z+3, r27	; 0x03
     cc4:	ce 01       	movw	r24, r28
     cc6:	80 5a       	subi	r24, 0xA0	; 160
     cc8:	9f 4f       	sbci	r25, 0xFF	; 255
     cca:	20 e0       	ldi	r18, 0x00	; 0
     ccc:	30 e0       	ldi	r19, 0x00	; 0
     cce:	40 e8       	ldi	r20, 0x80	; 128
     cd0:	5f e3       	ldi	r21, 0x3F	; 63
     cd2:	fc 01       	movw	r30, r24
     cd4:	60 81       	ld	r22, Z
     cd6:	71 81       	ldd	r23, Z+1	; 0x01
     cd8:	82 81       	ldd	r24, Z+2	; 0x02
     cda:	93 81       	ldd	r25, Z+3	; 0x03
     cdc:	0e 94 4b 16 	call	0x2c96	; 0x2c96 <__cmpsf2>
     ce0:	88 23       	and	r24, r24
     ce2:	4c f4       	brge	.+18     	; 0xcf6 <LCD_Char+0x1a4>
     ce4:	ce 01       	movw	r24, r28
     ce6:	8c 59       	subi	r24, 0x9C	; 156
     ce8:	9f 4f       	sbci	r25, 0xFF	; 255
     cea:	21 e0       	ldi	r18, 0x01	; 1
     cec:	30 e0       	ldi	r19, 0x00	; 0
     cee:	fc 01       	movw	r30, r24
     cf0:	31 83       	std	Z+1, r19	; 0x01
     cf2:	20 83       	st	Z, r18
     cf4:	6d c0       	rjmp	.+218    	; 0xdd0 <LCD_Char+0x27e>
     cf6:	ce 01       	movw	r24, r28
     cf8:	80 5a       	subi	r24, 0xA0	; 160
     cfa:	9f 4f       	sbci	r25, 0xFF	; 255
     cfc:	20 e0       	ldi	r18, 0x00	; 0
     cfe:	3f ef       	ldi	r19, 0xFF	; 255
     d00:	4f e7       	ldi	r20, 0x7F	; 127
     d02:	57 e4       	ldi	r21, 0x47	; 71
     d04:	fc 01       	movw	r30, r24
     d06:	60 81       	ld	r22, Z
     d08:	71 81       	ldd	r23, Z+1	; 0x01
     d0a:	82 81       	ldd	r24, Z+2	; 0x02
     d0c:	93 81       	ldd	r25, Z+3	; 0x03
     d0e:	0e 94 9a 17 	call	0x2f34	; 0x2f34 <__gesf2>
     d12:	18 16       	cp	r1, r24
     d14:	0c f0       	brlt	.+2      	; 0xd18 <LCD_Char+0x1c6>
     d16:	4a c0       	rjmp	.+148    	; 0xdac <LCD_Char+0x25a>
     d18:	ce 01       	movw	r24, r28
     d1a:	84 5a       	subi	r24, 0xA4	; 164
     d1c:	9f 4f       	sbci	r25, 0xFF	; 255
     d1e:	20 e0       	ldi	r18, 0x00	; 0
     d20:	30 e0       	ldi	r19, 0x00	; 0
     d22:	40 e2       	ldi	r20, 0x20	; 32
     d24:	51 e4       	ldi	r21, 0x41	; 65
     d26:	fc 01       	movw	r30, r24
     d28:	60 81       	ld	r22, Z
     d2a:	71 81       	ldd	r23, Z+1	; 0x01
     d2c:	82 81       	ldd	r24, Z+2	; 0x02
     d2e:	93 81       	ldd	r25, Z+3	; 0x03
     d30:	0e 94 9e 17 	call	0x2f3c	; 0x2f3c <__mulsf3>
     d34:	dc 01       	movw	r26, r24
     d36:	cb 01       	movw	r24, r22
     d38:	8e 01       	movw	r16, r28
     d3a:	0c 59       	subi	r16, 0x9C	; 156
     d3c:	1f 4f       	sbci	r17, 0xFF	; 255
     d3e:	bc 01       	movw	r22, r24
     d40:	cd 01       	movw	r24, r26
     d42:	0e 94 bc 16 	call	0x2d78	; 0x2d78 <__fixunssfsi>
     d46:	dc 01       	movw	r26, r24
     d48:	cb 01       	movw	r24, r22
     d4a:	f8 01       	movw	r30, r16
     d4c:	91 83       	std	Z+1, r25	; 0x01
     d4e:	80 83       	st	Z, r24
     d50:	24 c0       	rjmp	.+72     	; 0xd9a <LCD_Char+0x248>
     d52:	ce 01       	movw	r24, r28
     d54:	8a 59       	subi	r24, 0x9A	; 154
     d56:	9f 4f       	sbci	r25, 0xFF	; 255
     d58:	29 e1       	ldi	r18, 0x19	; 25
     d5a:	30 e0       	ldi	r19, 0x00	; 0
     d5c:	fc 01       	movw	r30, r24
     d5e:	31 83       	std	Z+1, r19	; 0x01
     d60:	20 83       	st	Z, r18
     d62:	ce 01       	movw	r24, r28
     d64:	8a 59       	subi	r24, 0x9A	; 154
     d66:	9f 4f       	sbci	r25, 0xFF	; 255
     d68:	fc 01       	movw	r30, r24
     d6a:	80 81       	ld	r24, Z
     d6c:	91 81       	ldd	r25, Z+1	; 0x01
     d6e:	01 97       	sbiw	r24, 0x01	; 1
     d70:	f1 f7       	brne	.-4      	; 0xd6e <LCD_Char+0x21c>
     d72:	9e 01       	movw	r18, r28
     d74:	2a 59       	subi	r18, 0x9A	; 154
     d76:	3f 4f       	sbci	r19, 0xFF	; 255
     d78:	f9 01       	movw	r30, r18
     d7a:	91 83       	std	Z+1, r25	; 0x01
     d7c:	80 83       	st	Z, r24
     d7e:	ce 01       	movw	r24, r28
     d80:	8c 59       	subi	r24, 0x9C	; 156
     d82:	9f 4f       	sbci	r25, 0xFF	; 255
     d84:	9e 01       	movw	r18, r28
     d86:	2c 59       	subi	r18, 0x9C	; 156
     d88:	3f 4f       	sbci	r19, 0xFF	; 255
     d8a:	f9 01       	movw	r30, r18
     d8c:	20 81       	ld	r18, Z
     d8e:	31 81       	ldd	r19, Z+1	; 0x01
     d90:	21 50       	subi	r18, 0x01	; 1
     d92:	31 09       	sbc	r19, r1
     d94:	fc 01       	movw	r30, r24
     d96:	31 83       	std	Z+1, r19	; 0x01
     d98:	20 83       	st	Z, r18
     d9a:	ce 01       	movw	r24, r28
     d9c:	8c 59       	subi	r24, 0x9C	; 156
     d9e:	9f 4f       	sbci	r25, 0xFF	; 255
     da0:	fc 01       	movw	r30, r24
     da2:	80 81       	ld	r24, Z
     da4:	91 81       	ldd	r25, Z+1	; 0x01
     da6:	89 2b       	or	r24, r25
     da8:	a1 f6       	brne	.-88     	; 0xd52 <LCD_Char+0x200>
     daa:	7b c0       	rjmp	.+246    	; 0xea2 <LCD_Char+0x350>
     dac:	8e 01       	movw	r16, r28
     dae:	0c 59       	subi	r16, 0x9C	; 156
     db0:	1f 4f       	sbci	r17, 0xFF	; 255
     db2:	ce 01       	movw	r24, r28
     db4:	80 5a       	subi	r24, 0xA0	; 160
     db6:	9f 4f       	sbci	r25, 0xFF	; 255
     db8:	fc 01       	movw	r30, r24
     dba:	60 81       	ld	r22, Z
     dbc:	71 81       	ldd	r23, Z+1	; 0x01
     dbe:	82 81       	ldd	r24, Z+2	; 0x02
     dc0:	93 81       	ldd	r25, Z+3	; 0x03
     dc2:	0e 94 bc 16 	call	0x2d78	; 0x2d78 <__fixunssfsi>
     dc6:	dc 01       	movw	r26, r24
     dc8:	cb 01       	movw	r24, r22
     dca:	f8 01       	movw	r30, r16
     dcc:	91 83       	std	Z+1, r25	; 0x01
     dce:	80 83       	st	Z, r24
     dd0:	ce 01       	movw	r24, r28
     dd2:	88 59       	subi	r24, 0x98	; 152
     dd4:	9f 4f       	sbci	r25, 0xFF	; 255
     dd6:	9e 01       	movw	r18, r28
     dd8:	2c 59       	subi	r18, 0x9C	; 156
     dda:	3f 4f       	sbci	r19, 0xFF	; 255
     ddc:	f9 01       	movw	r30, r18
     dde:	20 81       	ld	r18, Z
     de0:	31 81       	ldd	r19, Z+1	; 0x01
     de2:	fc 01       	movw	r30, r24
     de4:	31 83       	std	Z+1, r19	; 0x01
     de6:	20 83       	st	Z, r18
     de8:	ce 01       	movw	r24, r28
     dea:	88 59       	subi	r24, 0x98	; 152
     dec:	9f 4f       	sbci	r25, 0xFF	; 255
     dee:	fc 01       	movw	r30, r24
     df0:	80 81       	ld	r24, Z
     df2:	91 81       	ldd	r25, Z+1	; 0x01
     df4:	01 97       	sbiw	r24, 0x01	; 1
     df6:	f1 f7       	brne	.-4      	; 0xdf4 <LCD_Char+0x2a2>
     df8:	9e 01       	movw	r18, r28
     dfa:	28 59       	subi	r18, 0x98	; 152
     dfc:	3f 4f       	sbci	r19, 0xFF	; 255
     dfe:	f9 01       	movw	r30, r18
     e00:	91 83       	std	Z+1, r25	; 0x01
     e02:	80 83       	st	Z, r24
     e04:	4e c0       	rjmp	.+156    	; 0xea2 <LCD_Char+0x350>
     e06:	ce 01       	movw	r24, r28
     e08:	8d 5a       	subi	r24, 0xAD	; 173
     e0a:	9f 4f       	sbci	r25, 0xFF	; 255
     e0c:	20 e0       	ldi	r18, 0x00	; 0
     e0e:	30 e0       	ldi	r19, 0x00	; 0
     e10:	4f e7       	ldi	r20, 0x7F	; 127
     e12:	53 e4       	ldi	r21, 0x43	; 67
     e14:	fc 01       	movw	r30, r24
     e16:	60 81       	ld	r22, Z
     e18:	71 81       	ldd	r23, Z+1	; 0x01
     e1a:	82 81       	ldd	r24, Z+2	; 0x02
     e1c:	93 81       	ldd	r25, Z+3	; 0x03
     e1e:	0e 94 9a 17 	call	0x2f34	; 0x2f34 <__gesf2>
     e22:	18 16       	cp	r1, r24
     e24:	6c f5       	brge	.+90     	; 0xe80 <LCD_Char+0x32e>
     e26:	8e 01       	movw	r16, r28
     e28:	06 59       	subi	r16, 0x96	; 150
     e2a:	1f 4f       	sbci	r17, 0xFF	; 255
     e2c:	ce 01       	movw	r24, r28
     e2e:	89 5a       	subi	r24, 0xA9	; 169
     e30:	9f 4f       	sbci	r25, 0xFF	; 255
     e32:	fc 01       	movw	r30, r24
     e34:	60 81       	ld	r22, Z
     e36:	71 81       	ldd	r23, Z+1	; 0x01
     e38:	82 81       	ldd	r24, Z+2	; 0x02
     e3a:	93 81       	ldd	r25, Z+3	; 0x03
     e3c:	0e 94 bc 16 	call	0x2d78	; 0x2d78 <__fixunssfsi>
     e40:	dc 01       	movw	r26, r24
     e42:	cb 01       	movw	r24, r22
     e44:	f8 01       	movw	r30, r16
     e46:	91 83       	std	Z+1, r25	; 0x01
     e48:	80 83       	st	Z, r24
     e4a:	ce 01       	movw	r24, r28
     e4c:	84 59       	subi	r24, 0x94	; 148
     e4e:	9f 4f       	sbci	r25, 0xFF	; 255
     e50:	9e 01       	movw	r18, r28
     e52:	26 59       	subi	r18, 0x96	; 150
     e54:	3f 4f       	sbci	r19, 0xFF	; 255
     e56:	f9 01       	movw	r30, r18
     e58:	20 81       	ld	r18, Z
     e5a:	31 81       	ldd	r19, Z+1	; 0x01
     e5c:	fc 01       	movw	r30, r24
     e5e:	31 83       	std	Z+1, r19	; 0x01
     e60:	20 83       	st	Z, r18
     e62:	ce 01       	movw	r24, r28
     e64:	84 59       	subi	r24, 0x94	; 148
     e66:	9f 4f       	sbci	r25, 0xFF	; 255
     e68:	fc 01       	movw	r30, r24
     e6a:	80 81       	ld	r24, Z
     e6c:	91 81       	ldd	r25, Z+1	; 0x01
     e6e:	01 97       	sbiw	r24, 0x01	; 1
     e70:	f1 f7       	brne	.-4      	; 0xe6e <LCD_Char+0x31c>
     e72:	9e 01       	movw	r18, r28
     e74:	24 59       	subi	r18, 0x94	; 148
     e76:	3f 4f       	sbci	r19, 0xFF	; 255
     e78:	f9 01       	movw	r30, r18
     e7a:	91 83       	std	Z+1, r25	; 0x01
     e7c:	80 83       	st	Z, r24
     e7e:	28 c0       	rjmp	.+80     	; 0xed0 <LCD_Char+0x37e>
     e80:	8e 01       	movw	r16, r28
     e82:	05 5a       	subi	r16, 0xA5	; 165
     e84:	1f 4f       	sbci	r17, 0xFF	; 255
     e86:	ce 01       	movw	r24, r28
     e88:	8d 5a       	subi	r24, 0xAD	; 173
     e8a:	9f 4f       	sbci	r25, 0xFF	; 255
     e8c:	fc 01       	movw	r30, r24
     e8e:	60 81       	ld	r22, Z
     e90:	71 81       	ldd	r23, Z+1	; 0x01
     e92:	82 81       	ldd	r24, Z+2	; 0x02
     e94:	93 81       	ldd	r25, Z+3	; 0x03
     e96:	0e 94 bc 16 	call	0x2d78	; 0x2d78 <__fixunssfsi>
     e9a:	dc 01       	movw	r26, r24
     e9c:	cb 01       	movw	r24, r22
     e9e:	f8 01       	movw	r30, r16
     ea0:	80 83       	st	Z, r24
     ea2:	ce 01       	movw	r24, r28
     ea4:	82 59       	subi	r24, 0x92	; 146
     ea6:	9f 4f       	sbci	r25, 0xFF	; 255
     ea8:	9e 01       	movw	r18, r28
     eaa:	25 5a       	subi	r18, 0xA5	; 165
     eac:	3f 4f       	sbci	r19, 0xFF	; 255
     eae:	f9 01       	movw	r30, r18
     eb0:	20 81       	ld	r18, Z
     eb2:	fc 01       	movw	r30, r24
     eb4:	20 83       	st	Z, r18
     eb6:	ce 01       	movw	r24, r28
     eb8:	82 59       	subi	r24, 0x92	; 146
     eba:	9f 4f       	sbci	r25, 0xFF	; 255
     ebc:	fc 01       	movw	r30, r24
     ebe:	80 81       	ld	r24, Z
     ec0:	28 2f       	mov	r18, r24
     ec2:	2a 95       	dec	r18
     ec4:	f1 f7       	brne	.-4      	; 0xec2 <LCD_Char+0x370>
     ec6:	ce 01       	movw	r24, r28
     ec8:	82 59       	subi	r24, 0x92	; 146
     eca:	9f 4f       	sbci	r25, 0xFF	; 255
     ecc:	fc 01       	movw	r30, r24
     ece:	20 83       	st	Z, r18
     ed0:	8b e2       	ldi	r24, 0x2B	; 43
     ed2:	90 e0       	ldi	r25, 0x00	; 0
     ed4:	2b e2       	ldi	r18, 0x2B	; 43
     ed6:	30 e0       	ldi	r19, 0x00	; 0
     ed8:	f9 01       	movw	r30, r18
     eda:	20 81       	ld	r18, Z
     edc:	27 7f       	andi	r18, 0xF7	; 247
     ede:	fc 01       	movw	r30, r24
     ee0:	20 83       	st	Z, r18
     ee2:	80 e0       	ldi	r24, 0x00	; 0
     ee4:	90 e0       	ldi	r25, 0x00	; 0
     ee6:	a8 e4       	ldi	r26, 0x48	; 72
     ee8:	b3 e4       	ldi	r27, 0x43	; 67
     eea:	8d 83       	std	Y+5, r24	; 0x05
     eec:	9e 83       	std	Y+6, r25	; 0x06
     eee:	af 83       	std	Y+7, r26	; 0x07
     ef0:	b8 87       	std	Y+8, r27	; 0x08
     ef2:	2b ea       	ldi	r18, 0xAB	; 171
     ef4:	3a ea       	ldi	r19, 0xAA	; 170
     ef6:	4a ea       	ldi	r20, 0xAA	; 170
     ef8:	5e e3       	ldi	r21, 0x3E	; 62
     efa:	6d 81       	ldd	r22, Y+5	; 0x05
     efc:	7e 81       	ldd	r23, Y+6	; 0x06
     efe:	8f 81       	ldd	r24, Y+7	; 0x07
     f00:	98 85       	ldd	r25, Y+8	; 0x08
     f02:	0e 94 9e 17 	call	0x2f3c	; 0x2f3c <__mulsf3>
     f06:	dc 01       	movw	r26, r24
     f08:	cb 01       	movw	r24, r22
     f0a:	8f ab       	std	Y+55, r24	; 0x37
     f0c:	98 af       	std	Y+56, r25	; 0x38
     f0e:	a9 af       	std	Y+57, r26	; 0x39
     f10:	ba af       	std	Y+58, r27	; 0x3a
     f12:	20 e0       	ldi	r18, 0x00	; 0
     f14:	30 e0       	ldi	r19, 0x00	; 0
     f16:	40 e8       	ldi	r20, 0x80	; 128
     f18:	5e e3       	ldi	r21, 0x3E	; 62
     f1a:	6d 81       	ldd	r22, Y+5	; 0x05
     f1c:	7e 81       	ldd	r23, Y+6	; 0x06
     f1e:	8f 81       	ldd	r24, Y+7	; 0x07
     f20:	98 85       	ldd	r25, Y+8	; 0x08
     f22:	0e 94 9e 17 	call	0x2f3c	; 0x2f3c <__mulsf3>
     f26:	dc 01       	movw	r26, r24
     f28:	cb 01       	movw	r24, r22
     f2a:	8b af       	std	Y+59, r24	; 0x3b
     f2c:	9c af       	std	Y+60, r25	; 0x3c
     f2e:	ad af       	std	Y+61, r26	; 0x3d
     f30:	be af       	std	Y+62, r27	; 0x3e
     f32:	20 e0       	ldi	r18, 0x00	; 0
     f34:	30 e0       	ldi	r19, 0x00	; 0
     f36:	40 e8       	ldi	r20, 0x80	; 128
     f38:	5f e3       	ldi	r21, 0x3F	; 63
     f3a:	6f a9       	ldd	r22, Y+55	; 0x37
     f3c:	78 ad       	ldd	r23, Y+56	; 0x38
     f3e:	89 ad       	ldd	r24, Y+57	; 0x39
     f40:	9a ad       	ldd	r25, Y+58	; 0x3a
     f42:	0e 94 4b 16 	call	0x2c96	; 0x2c96 <__cmpsf2>
     f46:	88 23       	and	r24, r24
     f48:	1c f4       	brge	.+6      	; 0xf50 <LCD_Char+0x3fe>
     f4a:	81 e0       	ldi	r24, 0x01	; 1
     f4c:	8f af       	std	Y+63, r24	; 0x3f
     f4e:	18 c1       	rjmp	.+560    	; 0x1180 <LCD_Char+0x62e>
     f50:	20 e0       	ldi	r18, 0x00	; 0
     f52:	3f ef       	ldi	r19, 0xFF	; 255
     f54:	4f e7       	ldi	r20, 0x7F	; 127
     f56:	57 e4       	ldi	r21, 0x47	; 71
     f58:	6b ad       	ldd	r22, Y+59	; 0x3b
     f5a:	7c ad       	ldd	r23, Y+60	; 0x3c
     f5c:	8d ad       	ldd	r24, Y+61	; 0x3d
     f5e:	9e ad       	ldd	r25, Y+62	; 0x3e
     f60:	0e 94 9a 17 	call	0x2f34	; 0x2f34 <__gesf2>
     f64:	18 16       	cp	r1, r24
     f66:	0c f0       	brlt	.+2      	; 0xf6a <LCD_Char+0x418>
     f68:	cd c0       	rjmp	.+410    	; 0x1104 <LCD_Char+0x5b2>
     f6a:	20 e0       	ldi	r18, 0x00	; 0
     f6c:	30 e0       	ldi	r19, 0x00	; 0
     f6e:	4a e7       	ldi	r20, 0x7A	; 122
     f70:	54 e4       	ldi	r21, 0x44	; 68
     f72:	6d 81       	ldd	r22, Y+5	; 0x05
     f74:	7e 81       	ldd	r23, Y+6	; 0x06
     f76:	8f 81       	ldd	r24, Y+7	; 0x07
     f78:	98 85       	ldd	r25, Y+8	; 0x08
     f7a:	0e 94 4f 16 	call	0x2c9e	; 0x2c9e <__divsf3>
     f7e:	dc 01       	movw	r26, r24
     f80:	cb 01       	movw	r24, r22
     f82:	9e 01       	movw	r18, r28
     f84:	20 5c       	subi	r18, 0xC0	; 192
     f86:	3f 4f       	sbci	r19, 0xFF	; 255
     f88:	f9 01       	movw	r30, r18
     f8a:	80 83       	st	Z, r24
     f8c:	91 83       	std	Z+1, r25	; 0x01
     f8e:	a2 83       	std	Z+2, r26	; 0x02
     f90:	b3 83       	std	Z+3, r27	; 0x03
     f92:	8e 01       	movw	r16, r28
     f94:	0c 5b       	subi	r16, 0xBC	; 188
     f96:	1f 4f       	sbci	r17, 0xFF	; 255
     f98:	ce 01       	movw	r24, r28
     f9a:	80 5c       	subi	r24, 0xC0	; 192
     f9c:	9f 4f       	sbci	r25, 0xFF	; 255
     f9e:	20 e0       	ldi	r18, 0x00	; 0
     fa0:	30 e0       	ldi	r19, 0x00	; 0
     fa2:	4a e7       	ldi	r20, 0x7A	; 122
     fa4:	53 e4       	ldi	r21, 0x43	; 67
     fa6:	fc 01       	movw	r30, r24
     fa8:	60 81       	ld	r22, Z
     faa:	71 81       	ldd	r23, Z+1	; 0x01
     fac:	82 81       	ldd	r24, Z+2	; 0x02
     fae:	93 81       	ldd	r25, Z+3	; 0x03
     fb0:	0e 94 9e 17 	call	0x2f3c	; 0x2f3c <__mulsf3>
     fb4:	dc 01       	movw	r26, r24
     fb6:	cb 01       	movw	r24, r22
     fb8:	f8 01       	movw	r30, r16
     fba:	80 83       	st	Z, r24
     fbc:	91 83       	std	Z+1, r25	; 0x01
     fbe:	a2 83       	std	Z+2, r26	; 0x02
     fc0:	b3 83       	std	Z+3, r27	; 0x03
     fc2:	ce 01       	movw	r24, r28
     fc4:	8c 5b       	subi	r24, 0xBC	; 188
     fc6:	9f 4f       	sbci	r25, 0xFF	; 255
     fc8:	20 e0       	ldi	r18, 0x00	; 0
     fca:	30 e0       	ldi	r19, 0x00	; 0
     fcc:	40 e8       	ldi	r20, 0x80	; 128
     fce:	5f e3       	ldi	r21, 0x3F	; 63
     fd0:	fc 01       	movw	r30, r24
     fd2:	60 81       	ld	r22, Z
     fd4:	71 81       	ldd	r23, Z+1	; 0x01
     fd6:	82 81       	ldd	r24, Z+2	; 0x02
     fd8:	93 81       	ldd	r25, Z+3	; 0x03
     fda:	0e 94 4b 16 	call	0x2c96	; 0x2c96 <__cmpsf2>
     fde:	88 23       	and	r24, r24
     fe0:	4c f4       	brge	.+18     	; 0xff4 <LCD_Char+0x4a2>
     fe2:	ce 01       	movw	r24, r28
     fe4:	88 5b       	subi	r24, 0xB8	; 184
     fe6:	9f 4f       	sbci	r25, 0xFF	; 255
     fe8:	21 e0       	ldi	r18, 0x01	; 1
     fea:	30 e0       	ldi	r19, 0x00	; 0
     fec:	fc 01       	movw	r30, r24
     fee:	31 83       	std	Z+1, r19	; 0x01
     ff0:	20 83       	st	Z, r18
     ff2:	6d c0       	rjmp	.+218    	; 0x10ce <LCD_Char+0x57c>
     ff4:	ce 01       	movw	r24, r28
     ff6:	8c 5b       	subi	r24, 0xBC	; 188
     ff8:	9f 4f       	sbci	r25, 0xFF	; 255
     ffa:	20 e0       	ldi	r18, 0x00	; 0
     ffc:	3f ef       	ldi	r19, 0xFF	; 255
     ffe:	4f e7       	ldi	r20, 0x7F	; 127
    1000:	57 e4       	ldi	r21, 0x47	; 71
    1002:	fc 01       	movw	r30, r24
    1004:	60 81       	ld	r22, Z
    1006:	71 81       	ldd	r23, Z+1	; 0x01
    1008:	82 81       	ldd	r24, Z+2	; 0x02
    100a:	93 81       	ldd	r25, Z+3	; 0x03
    100c:	0e 94 9a 17 	call	0x2f34	; 0x2f34 <__gesf2>
    1010:	18 16       	cp	r1, r24
    1012:	0c f0       	brlt	.+2      	; 0x1016 <LCD_Char+0x4c4>
    1014:	4a c0       	rjmp	.+148    	; 0x10aa <LCD_Char+0x558>
    1016:	ce 01       	movw	r24, r28
    1018:	80 5c       	subi	r24, 0xC0	; 192
    101a:	9f 4f       	sbci	r25, 0xFF	; 255
    101c:	20 e0       	ldi	r18, 0x00	; 0
    101e:	30 e0       	ldi	r19, 0x00	; 0
    1020:	40 e2       	ldi	r20, 0x20	; 32
    1022:	51 e4       	ldi	r21, 0x41	; 65
    1024:	fc 01       	movw	r30, r24
    1026:	60 81       	ld	r22, Z
    1028:	71 81       	ldd	r23, Z+1	; 0x01
    102a:	82 81       	ldd	r24, Z+2	; 0x02
    102c:	93 81       	ldd	r25, Z+3	; 0x03
    102e:	0e 94 9e 17 	call	0x2f3c	; 0x2f3c <__mulsf3>
    1032:	dc 01       	movw	r26, r24
    1034:	cb 01       	movw	r24, r22
    1036:	8e 01       	movw	r16, r28
    1038:	08 5b       	subi	r16, 0xB8	; 184
    103a:	1f 4f       	sbci	r17, 0xFF	; 255
    103c:	bc 01       	movw	r22, r24
    103e:	cd 01       	movw	r24, r26
    1040:	0e 94 bc 16 	call	0x2d78	; 0x2d78 <__fixunssfsi>
    1044:	dc 01       	movw	r26, r24
    1046:	cb 01       	movw	r24, r22
    1048:	f8 01       	movw	r30, r16
    104a:	91 83       	std	Z+1, r25	; 0x01
    104c:	80 83       	st	Z, r24
    104e:	24 c0       	rjmp	.+72     	; 0x1098 <LCD_Char+0x546>
    1050:	ce 01       	movw	r24, r28
    1052:	86 5b       	subi	r24, 0xB6	; 182
    1054:	9f 4f       	sbci	r25, 0xFF	; 255
    1056:	29 e1       	ldi	r18, 0x19	; 25
    1058:	30 e0       	ldi	r19, 0x00	; 0
    105a:	fc 01       	movw	r30, r24
    105c:	31 83       	std	Z+1, r19	; 0x01
    105e:	20 83       	st	Z, r18
    1060:	ce 01       	movw	r24, r28
    1062:	86 5b       	subi	r24, 0xB6	; 182
    1064:	9f 4f       	sbci	r25, 0xFF	; 255
    1066:	fc 01       	movw	r30, r24
    1068:	80 81       	ld	r24, Z
    106a:	91 81       	ldd	r25, Z+1	; 0x01
    106c:	01 97       	sbiw	r24, 0x01	; 1
    106e:	f1 f7       	brne	.-4      	; 0x106c <LCD_Char+0x51a>
    1070:	9e 01       	movw	r18, r28
    1072:	26 5b       	subi	r18, 0xB6	; 182
    1074:	3f 4f       	sbci	r19, 0xFF	; 255
    1076:	f9 01       	movw	r30, r18
    1078:	91 83       	std	Z+1, r25	; 0x01
    107a:	80 83       	st	Z, r24
    107c:	ce 01       	movw	r24, r28
    107e:	88 5b       	subi	r24, 0xB8	; 184
    1080:	9f 4f       	sbci	r25, 0xFF	; 255
    1082:	9e 01       	movw	r18, r28
    1084:	28 5b       	subi	r18, 0xB8	; 184
    1086:	3f 4f       	sbci	r19, 0xFF	; 255
    1088:	f9 01       	movw	r30, r18
    108a:	20 81       	ld	r18, Z
    108c:	31 81       	ldd	r19, Z+1	; 0x01
    108e:	21 50       	subi	r18, 0x01	; 1
    1090:	31 09       	sbc	r19, r1
    1092:	fc 01       	movw	r30, r24
    1094:	31 83       	std	Z+1, r19	; 0x01
    1096:	20 83       	st	Z, r18
    1098:	ce 01       	movw	r24, r28
    109a:	88 5b       	subi	r24, 0xB8	; 184
    109c:	9f 4f       	sbci	r25, 0xFF	; 255
    109e:	fc 01       	movw	r30, r24
    10a0:	80 81       	ld	r24, Z
    10a2:	91 81       	ldd	r25, Z+1	; 0x01
    10a4:	89 2b       	or	r24, r25
    10a6:	a1 f6       	brne	.-88     	; 0x1050 <LCD_Char+0x4fe>
    10a8:	6b c0       	rjmp	.+214    	; 0x1180 <LCD_Char+0x62e>
    10aa:	8e 01       	movw	r16, r28
    10ac:	08 5b       	subi	r16, 0xB8	; 184
    10ae:	1f 4f       	sbci	r17, 0xFF	; 255
    10b0:	ce 01       	movw	r24, r28
    10b2:	8c 5b       	subi	r24, 0xBC	; 188
    10b4:	9f 4f       	sbci	r25, 0xFF	; 255
    10b6:	fc 01       	movw	r30, r24
    10b8:	60 81       	ld	r22, Z
    10ba:	71 81       	ldd	r23, Z+1	; 0x01
    10bc:	82 81       	ldd	r24, Z+2	; 0x02
    10be:	93 81       	ldd	r25, Z+3	; 0x03
    10c0:	0e 94 bc 16 	call	0x2d78	; 0x2d78 <__fixunssfsi>
    10c4:	dc 01       	movw	r26, r24
    10c6:	cb 01       	movw	r24, r22
    10c8:	f8 01       	movw	r30, r16
    10ca:	91 83       	std	Z+1, r25	; 0x01
    10cc:	80 83       	st	Z, r24
    10ce:	ce 01       	movw	r24, r28
    10d0:	84 5b       	subi	r24, 0xB4	; 180
    10d2:	9f 4f       	sbci	r25, 0xFF	; 255
    10d4:	9e 01       	movw	r18, r28
    10d6:	28 5b       	subi	r18, 0xB8	; 184
    10d8:	3f 4f       	sbci	r19, 0xFF	; 255
    10da:	f9 01       	movw	r30, r18
    10dc:	20 81       	ld	r18, Z
    10de:	31 81       	ldd	r19, Z+1	; 0x01
    10e0:	fc 01       	movw	r30, r24
    10e2:	31 83       	std	Z+1, r19	; 0x01
    10e4:	20 83       	st	Z, r18
    10e6:	ce 01       	movw	r24, r28
    10e8:	84 5b       	subi	r24, 0xB4	; 180
    10ea:	9f 4f       	sbci	r25, 0xFF	; 255
    10ec:	fc 01       	movw	r30, r24
    10ee:	80 81       	ld	r24, Z
    10f0:	91 81       	ldd	r25, Z+1	; 0x01
    10f2:	01 97       	sbiw	r24, 0x01	; 1
    10f4:	f1 f7       	brne	.-4      	; 0x10f2 <LCD_Char+0x5a0>
    10f6:	9e 01       	movw	r18, r28
    10f8:	24 5b       	subi	r18, 0xB4	; 180
    10fa:	3f 4f       	sbci	r19, 0xFF	; 255
    10fc:	f9 01       	movw	r30, r18
    10fe:	91 83       	std	Z+1, r25	; 0x01
    1100:	80 83       	st	Z, r24
    1102:	3e c0       	rjmp	.+124    	; 0x1180 <LCD_Char+0x62e>
    1104:	20 e0       	ldi	r18, 0x00	; 0
    1106:	30 e0       	ldi	r19, 0x00	; 0
    1108:	4f e7       	ldi	r20, 0x7F	; 127
    110a:	53 e4       	ldi	r21, 0x43	; 67
    110c:	6f a9       	ldd	r22, Y+55	; 0x37
    110e:	78 ad       	ldd	r23, Y+56	; 0x38
    1110:	89 ad       	ldd	r24, Y+57	; 0x39
    1112:	9a ad       	ldd	r25, Y+58	; 0x3a
    1114:	0e 94 9a 17 	call	0x2f34	; 0x2f34 <__gesf2>
    1118:	18 16       	cp	r1, r24
    111a:	4c f5       	brge	.+82     	; 0x116e <LCD_Char+0x61c>
    111c:	8e 01       	movw	r16, r28
    111e:	02 5b       	subi	r16, 0xB2	; 178
    1120:	1f 4f       	sbci	r17, 0xFF	; 255
    1122:	6b ad       	ldd	r22, Y+59	; 0x3b
    1124:	7c ad       	ldd	r23, Y+60	; 0x3c
    1126:	8d ad       	ldd	r24, Y+61	; 0x3d
    1128:	9e ad       	ldd	r25, Y+62	; 0x3e
    112a:	0e 94 bc 16 	call	0x2d78	; 0x2d78 <__fixunssfsi>
    112e:	dc 01       	movw	r26, r24
    1130:	cb 01       	movw	r24, r22
    1132:	f8 01       	movw	r30, r16
    1134:	91 83       	std	Z+1, r25	; 0x01
    1136:	80 83       	st	Z, r24
    1138:	ce 01       	movw	r24, r28
    113a:	80 5b       	subi	r24, 0xB0	; 176
    113c:	9f 4f       	sbci	r25, 0xFF	; 255
    113e:	9e 01       	movw	r18, r28
    1140:	22 5b       	subi	r18, 0xB2	; 178
    1142:	3f 4f       	sbci	r19, 0xFF	; 255
    1144:	f9 01       	movw	r30, r18
    1146:	20 81       	ld	r18, Z
    1148:	31 81       	ldd	r19, Z+1	; 0x01
    114a:	fc 01       	movw	r30, r24
    114c:	31 83       	std	Z+1, r19	; 0x01
    114e:	20 83       	st	Z, r18
    1150:	ce 01       	movw	r24, r28
    1152:	80 5b       	subi	r24, 0xB0	; 176
    1154:	9f 4f       	sbci	r25, 0xFF	; 255
    1156:	fc 01       	movw	r30, r24
    1158:	80 81       	ld	r24, Z
    115a:	91 81       	ldd	r25, Z+1	; 0x01
    115c:	01 97       	sbiw	r24, 0x01	; 1
    115e:	f1 f7       	brne	.-4      	; 0x115c <LCD_Char+0x60a>
    1160:	9e 01       	movw	r18, r28
    1162:	20 5b       	subi	r18, 0xB0	; 176
    1164:	3f 4f       	sbci	r19, 0xFF	; 255
    1166:	f9 01       	movw	r30, r18
    1168:	91 83       	std	Z+1, r25	; 0x01
    116a:	80 83       	st	Z, r24
    116c:	1c c0       	rjmp	.+56     	; 0x11a6 <LCD_Char+0x654>
    116e:	6f a9       	ldd	r22, Y+55	; 0x37
    1170:	78 ad       	ldd	r23, Y+56	; 0x38
    1172:	89 ad       	ldd	r24, Y+57	; 0x39
    1174:	9a ad       	ldd	r25, Y+58	; 0x3a
    1176:	0e 94 bc 16 	call	0x2d78	; 0x2d78 <__fixunssfsi>
    117a:	dc 01       	movw	r26, r24
    117c:	cb 01       	movw	r24, r22
    117e:	8f af       	std	Y+63, r24	; 0x3f
    1180:	ce 01       	movw	r24, r28
    1182:	8e 5a       	subi	r24, 0xAE	; 174
    1184:	9f 4f       	sbci	r25, 0xFF	; 255
    1186:	2f ad       	ldd	r18, Y+63	; 0x3f
    1188:	fc 01       	movw	r30, r24
    118a:	20 83       	st	Z, r18
    118c:	ce 01       	movw	r24, r28
    118e:	8e 5a       	subi	r24, 0xAE	; 174
    1190:	9f 4f       	sbci	r25, 0xFF	; 255
    1192:	fc 01       	movw	r30, r24
    1194:	80 81       	ld	r24, Z
    1196:	28 2f       	mov	r18, r24
    1198:	2a 95       	dec	r18
    119a:	f1 f7       	brne	.-4      	; 0x1198 <LCD_Char+0x646>
    119c:	ce 01       	movw	r24, r28
    119e:	8e 5a       	subi	r24, 0xAE	; 174
    11a0:	9f 4f       	sbci	r25, 0xFF	; 255
    11a2:	fc 01       	movw	r30, r24
    11a4:	20 83       	st	Z, r18
    11a6:	8b e2       	ldi	r24, 0x2B	; 43
    11a8:	90 e0       	ldi	r25, 0x00	; 0
    11aa:	2b e2       	ldi	r18, 0x2B	; 43
    11ac:	30 e0       	ldi	r19, 0x00	; 0
    11ae:	f9 01       	movw	r30, r18
    11b0:	20 81       	ld	r18, Z
    11b2:	42 2f       	mov	r20, r18
    11b4:	4f 70       	andi	r20, 0x0F	; 15
    11b6:	9e 01       	movw	r18, r28
    11b8:	21 59       	subi	r18, 0x91	; 145
    11ba:	3f 4f       	sbci	r19, 0xFF	; 255
    11bc:	f9 01       	movw	r30, r18
    11be:	20 81       	ld	r18, Z
    11c0:	22 2f       	mov	r18, r18
    11c2:	30 e0       	ldi	r19, 0x00	; 0
    11c4:	22 95       	swap	r18
    11c6:	32 95       	swap	r19
    11c8:	30 7f       	andi	r19, 0xF0	; 240
    11ca:	32 27       	eor	r19, r18
    11cc:	20 7f       	andi	r18, 0xF0	; 240
    11ce:	32 27       	eor	r19, r18
    11d0:	24 2b       	or	r18, r20
    11d2:	fc 01       	movw	r30, r24
    11d4:	20 83       	st	Z, r18
    11d6:	8b e2       	ldi	r24, 0x2B	; 43
    11d8:	90 e0       	ldi	r25, 0x00	; 0
    11da:	2b e2       	ldi	r18, 0x2B	; 43
    11dc:	30 e0       	ldi	r19, 0x00	; 0
    11de:	f9 01       	movw	r30, r18
    11e0:	20 81       	ld	r18, Z
    11e2:	28 60       	ori	r18, 0x08	; 8
    11e4:	fc 01       	movw	r30, r24
    11e6:	20 83       	st	Z, r18
    11e8:	80 e0       	ldi	r24, 0x00	; 0
    11ea:	90 e0       	ldi	r25, 0x00	; 0
    11ec:	a0 e8       	ldi	r26, 0x80	; 128
    11ee:	bf e3       	ldi	r27, 0x3F	; 63
    11f0:	89 87       	std	Y+9, r24	; 0x09
    11f2:	9a 87       	std	Y+10, r25	; 0x0a
    11f4:	ab 87       	std	Y+11, r26	; 0x0b
    11f6:	bc 87       	std	Y+12, r27	; 0x0c
    11f8:	2b ea       	ldi	r18, 0xAB	; 171
    11fa:	3a ea       	ldi	r19, 0xAA	; 170
    11fc:	4a ea       	ldi	r20, 0xAA	; 170
    11fe:	5e e3       	ldi	r21, 0x3E	; 62
    1200:	69 85       	ldd	r22, Y+9	; 0x09
    1202:	7a 85       	ldd	r23, Y+10	; 0x0a
    1204:	8b 85       	ldd	r24, Y+11	; 0x0b
    1206:	9c 85       	ldd	r25, Y+12	; 0x0c
    1208:	0e 94 9e 17 	call	0x2f3c	; 0x2f3c <__mulsf3>
    120c:	dc 01       	movw	r26, r24
    120e:	cb 01       	movw	r24, r22
    1210:	8b 8f       	std	Y+27, r24	; 0x1b
    1212:	9c 8f       	std	Y+28, r25	; 0x1c
    1214:	ad 8f       	std	Y+29, r26	; 0x1d
    1216:	be 8f       	std	Y+30, r27	; 0x1e
    1218:	20 e0       	ldi	r18, 0x00	; 0
    121a:	30 e0       	ldi	r19, 0x00	; 0
    121c:	40 e8       	ldi	r20, 0x80	; 128
    121e:	5e e3       	ldi	r21, 0x3E	; 62
    1220:	69 85       	ldd	r22, Y+9	; 0x09
    1222:	7a 85       	ldd	r23, Y+10	; 0x0a
    1224:	8b 85       	ldd	r24, Y+11	; 0x0b
    1226:	9c 85       	ldd	r25, Y+12	; 0x0c
    1228:	0e 94 9e 17 	call	0x2f3c	; 0x2f3c <__mulsf3>
    122c:	dc 01       	movw	r26, r24
    122e:	cb 01       	movw	r24, r22
    1230:	8f 8f       	std	Y+31, r24	; 0x1f
    1232:	98 a3       	std	Y+32, r25	; 0x20
    1234:	a9 a3       	std	Y+33, r26	; 0x21
    1236:	ba a3       	std	Y+34, r27	; 0x22
    1238:	20 e0       	ldi	r18, 0x00	; 0
    123a:	30 e0       	ldi	r19, 0x00	; 0
    123c:	40 e8       	ldi	r20, 0x80	; 128
    123e:	5f e3       	ldi	r21, 0x3F	; 63
    1240:	6b 8d       	ldd	r22, Y+27	; 0x1b
    1242:	7c 8d       	ldd	r23, Y+28	; 0x1c
    1244:	8d 8d       	ldd	r24, Y+29	; 0x1d
    1246:	9e 8d       	ldd	r25, Y+30	; 0x1e
    1248:	0e 94 4b 16 	call	0x2c96	; 0x2c96 <__cmpsf2>
    124c:	88 23       	and	r24, r24
    124e:	1c f4       	brge	.+6      	; 0x1256 <LCD_Char+0x704>
    1250:	81 e0       	ldi	r24, 0x01	; 1
    1252:	8b a3       	std	Y+35, r24	; 0x23
    1254:	b2 c0       	rjmp	.+356    	; 0x13ba <LCD_Char+0x868>
    1256:	20 e0       	ldi	r18, 0x00	; 0
    1258:	3f ef       	ldi	r19, 0xFF	; 255
    125a:	4f e7       	ldi	r20, 0x7F	; 127
    125c:	57 e4       	ldi	r21, 0x47	; 71
    125e:	6f 8d       	ldd	r22, Y+31	; 0x1f
    1260:	78 a1       	ldd	r23, Y+32	; 0x20
    1262:	89 a1       	ldd	r24, Y+33	; 0x21
    1264:	9a a1       	ldd	r25, Y+34	; 0x22
    1266:	0e 94 9a 17 	call	0x2f34	; 0x2f34 <__gesf2>
    126a:	18 16       	cp	r1, r24
    126c:	0c f0       	brlt	.+2      	; 0x1270 <LCD_Char+0x71e>
    126e:	7b c0       	rjmp	.+246    	; 0x1366 <LCD_Char+0x814>
    1270:	20 e0       	ldi	r18, 0x00	; 0
    1272:	30 e0       	ldi	r19, 0x00	; 0
    1274:	4a e7       	ldi	r20, 0x7A	; 122
    1276:	54 e4       	ldi	r21, 0x44	; 68
    1278:	69 85       	ldd	r22, Y+9	; 0x09
    127a:	7a 85       	ldd	r23, Y+10	; 0x0a
    127c:	8b 85       	ldd	r24, Y+11	; 0x0b
    127e:	9c 85       	ldd	r25, Y+12	; 0x0c
    1280:	0e 94 4f 16 	call	0x2c9e	; 0x2c9e <__divsf3>
    1284:	dc 01       	movw	r26, r24
    1286:	cb 01       	movw	r24, r22
    1288:	8c a3       	std	Y+36, r24	; 0x24
    128a:	9d a3       	std	Y+37, r25	; 0x25
    128c:	ae a3       	std	Y+38, r26	; 0x26
    128e:	bf a3       	std	Y+39, r27	; 0x27
    1290:	20 e0       	ldi	r18, 0x00	; 0
    1292:	30 e0       	ldi	r19, 0x00	; 0
    1294:	4a e7       	ldi	r20, 0x7A	; 122
    1296:	53 e4       	ldi	r21, 0x43	; 67
    1298:	6c a1       	ldd	r22, Y+36	; 0x24
    129a:	7d a1       	ldd	r23, Y+37	; 0x25
    129c:	8e a1       	ldd	r24, Y+38	; 0x26
    129e:	9f a1       	ldd	r25, Y+39	; 0x27
    12a0:	0e 94 9e 17 	call	0x2f3c	; 0x2f3c <__mulsf3>
    12a4:	dc 01       	movw	r26, r24
    12a6:	cb 01       	movw	r24, r22
    12a8:	88 a7       	std	Y+40, r24	; 0x28
    12aa:	99 a7       	std	Y+41, r25	; 0x29
    12ac:	aa a7       	std	Y+42, r26	; 0x2a
    12ae:	bb a7       	std	Y+43, r27	; 0x2b
    12b0:	20 e0       	ldi	r18, 0x00	; 0
    12b2:	30 e0       	ldi	r19, 0x00	; 0
    12b4:	40 e8       	ldi	r20, 0x80	; 128
    12b6:	5f e3       	ldi	r21, 0x3F	; 63
    12b8:	68 a5       	ldd	r22, Y+40	; 0x28
    12ba:	79 a5       	ldd	r23, Y+41	; 0x29
    12bc:	8a a5       	ldd	r24, Y+42	; 0x2a
    12be:	9b a5       	ldd	r25, Y+43	; 0x2b
    12c0:	0e 94 4b 16 	call	0x2c96	; 0x2c96 <__cmpsf2>
    12c4:	88 23       	and	r24, r24
    12c6:	2c f4       	brge	.+10     	; 0x12d2 <LCD_Char+0x780>
    12c8:	81 e0       	ldi	r24, 0x01	; 1
    12ca:	90 e0       	ldi	r25, 0x00	; 0
    12cc:	9d a7       	std	Y+45, r25	; 0x2d
    12ce:	8c a7       	std	Y+44, r24	; 0x2c
    12d0:	3f c0       	rjmp	.+126    	; 0x1350 <LCD_Char+0x7fe>
    12d2:	20 e0       	ldi	r18, 0x00	; 0
    12d4:	3f ef       	ldi	r19, 0xFF	; 255
    12d6:	4f e7       	ldi	r20, 0x7F	; 127
    12d8:	57 e4       	ldi	r21, 0x47	; 71
    12da:	68 a5       	ldd	r22, Y+40	; 0x28
    12dc:	79 a5       	ldd	r23, Y+41	; 0x29
    12de:	8a a5       	ldd	r24, Y+42	; 0x2a
    12e0:	9b a5       	ldd	r25, Y+43	; 0x2b
    12e2:	0e 94 9a 17 	call	0x2f34	; 0x2f34 <__gesf2>
    12e6:	18 16       	cp	r1, r24
    12e8:	4c f5       	brge	.+82     	; 0x133c <LCD_Char+0x7ea>
    12ea:	20 e0       	ldi	r18, 0x00	; 0
    12ec:	30 e0       	ldi	r19, 0x00	; 0
    12ee:	40 e2       	ldi	r20, 0x20	; 32
    12f0:	51 e4       	ldi	r21, 0x41	; 65
    12f2:	6c a1       	ldd	r22, Y+36	; 0x24
    12f4:	7d a1       	ldd	r23, Y+37	; 0x25
    12f6:	8e a1       	ldd	r24, Y+38	; 0x26
    12f8:	9f a1       	ldd	r25, Y+39	; 0x27
    12fa:	0e 94 9e 17 	call	0x2f3c	; 0x2f3c <__mulsf3>
    12fe:	dc 01       	movw	r26, r24
    1300:	cb 01       	movw	r24, r22
    1302:	bc 01       	movw	r22, r24
    1304:	cd 01       	movw	r24, r26
    1306:	0e 94 bc 16 	call	0x2d78	; 0x2d78 <__fixunssfsi>
    130a:	dc 01       	movw	r26, r24
    130c:	cb 01       	movw	r24, r22
    130e:	9d a7       	std	Y+45, r25	; 0x2d
    1310:	8c a7       	std	Y+44, r24	; 0x2c
    1312:	0f c0       	rjmp	.+30     	; 0x1332 <LCD_Char+0x7e0>
    1314:	89 e1       	ldi	r24, 0x19	; 25
    1316:	90 e0       	ldi	r25, 0x00	; 0
    1318:	9f a7       	std	Y+47, r25	; 0x2f
    131a:	8e a7       	std	Y+46, r24	; 0x2e
    131c:	8e a5       	ldd	r24, Y+46	; 0x2e
    131e:	9f a5       	ldd	r25, Y+47	; 0x2f
    1320:	01 97       	sbiw	r24, 0x01	; 1
    1322:	f1 f7       	brne	.-4      	; 0x1320 <LCD_Char+0x7ce>
    1324:	9f a7       	std	Y+47, r25	; 0x2f
    1326:	8e a7       	std	Y+46, r24	; 0x2e
    1328:	8c a5       	ldd	r24, Y+44	; 0x2c
    132a:	9d a5       	ldd	r25, Y+45	; 0x2d
    132c:	01 97       	sbiw	r24, 0x01	; 1
    132e:	9d a7       	std	Y+45, r25	; 0x2d
    1330:	8c a7       	std	Y+44, r24	; 0x2c
    1332:	8c a5       	ldd	r24, Y+44	; 0x2c
    1334:	9d a5       	ldd	r25, Y+45	; 0x2d
    1336:	89 2b       	or	r24, r25
    1338:	69 f7       	brne	.-38     	; 0x1314 <LCD_Char+0x7c2>
    133a:	3f c0       	rjmp	.+126    	; 0x13ba <LCD_Char+0x868>
    133c:	68 a5       	ldd	r22, Y+40	; 0x28
    133e:	79 a5       	ldd	r23, Y+41	; 0x29
    1340:	8a a5       	ldd	r24, Y+42	; 0x2a
    1342:	9b a5       	ldd	r25, Y+43	; 0x2b
    1344:	0e 94 bc 16 	call	0x2d78	; 0x2d78 <__fixunssfsi>
    1348:	dc 01       	movw	r26, r24
    134a:	cb 01       	movw	r24, r22
    134c:	9d a7       	std	Y+45, r25	; 0x2d
    134e:	8c a7       	std	Y+44, r24	; 0x2c
    1350:	8c a5       	ldd	r24, Y+44	; 0x2c
    1352:	9d a5       	ldd	r25, Y+45	; 0x2d
    1354:	99 ab       	std	Y+49, r25	; 0x31
    1356:	88 ab       	std	Y+48, r24	; 0x30
    1358:	88 a9       	ldd	r24, Y+48	; 0x30
    135a:	99 a9       	ldd	r25, Y+49	; 0x31
    135c:	01 97       	sbiw	r24, 0x01	; 1
    135e:	f1 f7       	brne	.-4      	; 0x135c <LCD_Char+0x80a>
    1360:	99 ab       	std	Y+49, r25	; 0x31
    1362:	88 ab       	std	Y+48, r24	; 0x30
    1364:	2a c0       	rjmp	.+84     	; 0x13ba <LCD_Char+0x868>
    1366:	20 e0       	ldi	r18, 0x00	; 0
    1368:	30 e0       	ldi	r19, 0x00	; 0
    136a:	4f e7       	ldi	r20, 0x7F	; 127
    136c:	53 e4       	ldi	r21, 0x43	; 67
    136e:	6b 8d       	ldd	r22, Y+27	; 0x1b
    1370:	7c 8d       	ldd	r23, Y+28	; 0x1c
    1372:	8d 8d       	ldd	r24, Y+29	; 0x1d
    1374:	9e 8d       	ldd	r25, Y+30	; 0x1e
    1376:	0e 94 9a 17 	call	0x2f34	; 0x2f34 <__gesf2>
    137a:	18 16       	cp	r1, r24
    137c:	ac f4       	brge	.+42     	; 0x13a8 <LCD_Char+0x856>
    137e:	6f 8d       	ldd	r22, Y+31	; 0x1f
    1380:	78 a1       	ldd	r23, Y+32	; 0x20
    1382:	89 a1       	ldd	r24, Y+33	; 0x21
    1384:	9a a1       	ldd	r25, Y+34	; 0x22
    1386:	0e 94 bc 16 	call	0x2d78	; 0x2d78 <__fixunssfsi>
    138a:	dc 01       	movw	r26, r24
    138c:	cb 01       	movw	r24, r22
    138e:	9b ab       	std	Y+51, r25	; 0x33
    1390:	8a ab       	std	Y+50, r24	; 0x32
    1392:	8a a9       	ldd	r24, Y+50	; 0x32
    1394:	9b a9       	ldd	r25, Y+51	; 0x33
    1396:	9d ab       	std	Y+53, r25	; 0x35
    1398:	8c ab       	std	Y+52, r24	; 0x34
    139a:	8c a9       	ldd	r24, Y+52	; 0x34
    139c:	9d a9       	ldd	r25, Y+53	; 0x35
    139e:	01 97       	sbiw	r24, 0x01	; 1
    13a0:	f1 f7       	brne	.-4      	; 0x139e <LCD_Char+0x84c>
    13a2:	9d ab       	std	Y+53, r25	; 0x35
    13a4:	8c ab       	std	Y+52, r24	; 0x34
    13a6:	0f c0       	rjmp	.+30     	; 0x13c6 <LCD_Char+0x874>
    13a8:	6b 8d       	ldd	r22, Y+27	; 0x1b
    13aa:	7c 8d       	ldd	r23, Y+28	; 0x1c
    13ac:	8d 8d       	ldd	r24, Y+29	; 0x1d
    13ae:	9e 8d       	ldd	r25, Y+30	; 0x1e
    13b0:	0e 94 bc 16 	call	0x2d78	; 0x2d78 <__fixunssfsi>
    13b4:	dc 01       	movw	r26, r24
    13b6:	cb 01       	movw	r24, r22
    13b8:	8b a3       	std	Y+35, r24	; 0x23
    13ba:	8b a1       	ldd	r24, Y+35	; 0x23
    13bc:	8e ab       	std	Y+54, r24	; 0x36
    13be:	8e a9       	ldd	r24, Y+54	; 0x36
    13c0:	8a 95       	dec	r24
    13c2:	f1 f7       	brne	.-4      	; 0x13c0 <LCD_Char+0x86e>
    13c4:	8e ab       	std	Y+54, r24	; 0x36
    13c6:	8b e2       	ldi	r24, 0x2B	; 43
    13c8:	90 e0       	ldi	r25, 0x00	; 0
    13ca:	2b e2       	ldi	r18, 0x2B	; 43
    13cc:	30 e0       	ldi	r19, 0x00	; 0
    13ce:	f9 01       	movw	r30, r18
    13d0:	20 81       	ld	r18, Z
    13d2:	27 7f       	andi	r18, 0xF7	; 247
    13d4:	fc 01       	movw	r30, r24
    13d6:	20 83       	st	Z, r18
    13d8:	80 e0       	ldi	r24, 0x00	; 0
    13da:	90 e0       	ldi	r25, 0x00	; 0
    13dc:	a0 e0       	ldi	r26, 0x00	; 0
    13de:	b0 e4       	ldi	r27, 0x40	; 64
    13e0:	8d 87       	std	Y+13, r24	; 0x0d
    13e2:	9e 87       	std	Y+14, r25	; 0x0e
    13e4:	af 87       	std	Y+15, r26	; 0x0f
    13e6:	b8 8b       	std	Y+16, r27	; 0x10
    13e8:	20 e0       	ldi	r18, 0x00	; 0
    13ea:	30 e0       	ldi	r19, 0x00	; 0
    13ec:	4a e7       	ldi	r20, 0x7A	; 122
    13ee:	53 e4       	ldi	r21, 0x43	; 67
    13f0:	6d 85       	ldd	r22, Y+13	; 0x0d
    13f2:	7e 85       	ldd	r23, Y+14	; 0x0e
    13f4:	8f 85       	ldd	r24, Y+15	; 0x0f
    13f6:	98 89       	ldd	r25, Y+16	; 0x10
    13f8:	0e 94 9e 17 	call	0x2f3c	; 0x2f3c <__mulsf3>
    13fc:	dc 01       	movw	r26, r24
    13fe:	cb 01       	movw	r24, r22
    1400:	89 8b       	std	Y+17, r24	; 0x11
    1402:	9a 8b       	std	Y+18, r25	; 0x12
    1404:	ab 8b       	std	Y+19, r26	; 0x13
    1406:	bc 8b       	std	Y+20, r27	; 0x14
    1408:	20 e0       	ldi	r18, 0x00	; 0
    140a:	30 e0       	ldi	r19, 0x00	; 0
    140c:	40 e8       	ldi	r20, 0x80	; 128
    140e:	5f e3       	ldi	r21, 0x3F	; 63
    1410:	69 89       	ldd	r22, Y+17	; 0x11
    1412:	7a 89       	ldd	r23, Y+18	; 0x12
    1414:	8b 89       	ldd	r24, Y+19	; 0x13
    1416:	9c 89       	ldd	r25, Y+20	; 0x14
    1418:	0e 94 4b 16 	call	0x2c96	; 0x2c96 <__cmpsf2>
    141c:	88 23       	and	r24, r24
    141e:	2c f4       	brge	.+10     	; 0x142a <LCD_Char+0x8d8>
    1420:	81 e0       	ldi	r24, 0x01	; 1
    1422:	90 e0       	ldi	r25, 0x00	; 0
    1424:	9e 8b       	std	Y+22, r25	; 0x16
    1426:	8d 8b       	std	Y+21, r24	; 0x15
    1428:	3f c0       	rjmp	.+126    	; 0x14a8 <LCD_Char+0x956>
    142a:	20 e0       	ldi	r18, 0x00	; 0
    142c:	3f ef       	ldi	r19, 0xFF	; 255
    142e:	4f e7       	ldi	r20, 0x7F	; 127
    1430:	57 e4       	ldi	r21, 0x47	; 71
    1432:	69 89       	ldd	r22, Y+17	; 0x11
    1434:	7a 89       	ldd	r23, Y+18	; 0x12
    1436:	8b 89       	ldd	r24, Y+19	; 0x13
    1438:	9c 89       	ldd	r25, Y+20	; 0x14
    143a:	0e 94 9a 17 	call	0x2f34	; 0x2f34 <__gesf2>
    143e:	18 16       	cp	r1, r24
    1440:	4c f5       	brge	.+82     	; 0x1494 <LCD_Char+0x942>
    1442:	20 e0       	ldi	r18, 0x00	; 0
    1444:	30 e0       	ldi	r19, 0x00	; 0
    1446:	40 e2       	ldi	r20, 0x20	; 32
    1448:	51 e4       	ldi	r21, 0x41	; 65
    144a:	6d 85       	ldd	r22, Y+13	; 0x0d
    144c:	7e 85       	ldd	r23, Y+14	; 0x0e
    144e:	8f 85       	ldd	r24, Y+15	; 0x0f
    1450:	98 89       	ldd	r25, Y+16	; 0x10
    1452:	0e 94 9e 17 	call	0x2f3c	; 0x2f3c <__mulsf3>
    1456:	dc 01       	movw	r26, r24
    1458:	cb 01       	movw	r24, r22
    145a:	bc 01       	movw	r22, r24
    145c:	cd 01       	movw	r24, r26
    145e:	0e 94 bc 16 	call	0x2d78	; 0x2d78 <__fixunssfsi>
    1462:	dc 01       	movw	r26, r24
    1464:	cb 01       	movw	r24, r22
    1466:	9e 8b       	std	Y+22, r25	; 0x16
    1468:	8d 8b       	std	Y+21, r24	; 0x15
    146a:	0f c0       	rjmp	.+30     	; 0x148a <LCD_Char+0x938>
    146c:	89 e1       	ldi	r24, 0x19	; 25
    146e:	90 e0       	ldi	r25, 0x00	; 0
    1470:	98 8f       	std	Y+24, r25	; 0x18
    1472:	8f 8b       	std	Y+23, r24	; 0x17
    1474:	8f 89       	ldd	r24, Y+23	; 0x17
    1476:	98 8d       	ldd	r25, Y+24	; 0x18
    1478:	01 97       	sbiw	r24, 0x01	; 1
    147a:	f1 f7       	brne	.-4      	; 0x1478 <LCD_Char+0x926>
    147c:	98 8f       	std	Y+24, r25	; 0x18
    147e:	8f 8b       	std	Y+23, r24	; 0x17
    1480:	8d 89       	ldd	r24, Y+21	; 0x15
    1482:	9e 89       	ldd	r25, Y+22	; 0x16
    1484:	01 97       	sbiw	r24, 0x01	; 1
    1486:	9e 8b       	std	Y+22, r25	; 0x16
    1488:	8d 8b       	std	Y+21, r24	; 0x15
    148a:	8d 89       	ldd	r24, Y+21	; 0x15
    148c:	9e 89       	ldd	r25, Y+22	; 0x16
    148e:	89 2b       	or	r24, r25
    1490:	69 f7       	brne	.-38     	; 0x146c <LCD_Char+0x91a>
    1492:	14 c0       	rjmp	.+40     	; 0x14bc <LCD_Char+0x96a>
    1494:	69 89       	ldd	r22, Y+17	; 0x11
    1496:	7a 89       	ldd	r23, Y+18	; 0x12
    1498:	8b 89       	ldd	r24, Y+19	; 0x13
    149a:	9c 89       	ldd	r25, Y+20	; 0x14
    149c:	0e 94 bc 16 	call	0x2d78	; 0x2d78 <__fixunssfsi>
    14a0:	dc 01       	movw	r26, r24
    14a2:	cb 01       	movw	r24, r22
    14a4:	9e 8b       	std	Y+22, r25	; 0x16
    14a6:	8d 8b       	std	Y+21, r24	; 0x15
    14a8:	8d 89       	ldd	r24, Y+21	; 0x15
    14aa:	9e 89       	ldd	r25, Y+22	; 0x16
    14ac:	9a 8f       	std	Y+26, r25	; 0x1a
    14ae:	89 8f       	std	Y+25, r24	; 0x19
    14b0:	89 8d       	ldd	r24, Y+25	; 0x19
    14b2:	9a 8d       	ldd	r25, Y+26	; 0x1a
    14b4:	01 97       	sbiw	r24, 0x01	; 1
    14b6:	f1 f7       	brne	.-4      	; 0x14b4 <LCD_Char+0x962>
    14b8:	9a 8f       	std	Y+26, r25	; 0x1a
    14ba:	89 8f       	std	Y+25, r24	; 0x19
    14bc:	00 00       	nop
    14be:	c1 59       	subi	r28, 0x91	; 145
    14c0:	df 4f       	sbci	r29, 0xFF	; 255
    14c2:	0f b6       	in	r0, 0x3f	; 63
    14c4:	f8 94       	cli
    14c6:	de bf       	out	0x3e, r29	; 62
    14c8:	0f be       	out	0x3f, r0	; 63
    14ca:	cd bf       	out	0x3d, r28	; 61
    14cc:	df 91       	pop	r29
    14ce:	cf 91       	pop	r28
    14d0:	1f 91       	pop	r17
    14d2:	0f 91       	pop	r16
    14d4:	08 95       	ret

000014d6 <LCD_Init>:
    14d6:	cf 93       	push	r28
    14d8:	df 93       	push	r29
    14da:	cd b7       	in	r28, 0x3d	; 61
    14dc:	de b7       	in	r29, 0x3e	; 62
    14de:	6c 97       	sbiw	r28, 0x1c	; 28
    14e0:	0f b6       	in	r0, 0x3f	; 63
    14e2:	f8 94       	cli
    14e4:	de bf       	out	0x3e, r29	; 62
    14e6:	0f be       	out	0x3f, r0	; 63
    14e8:	cd bf       	out	0x3d, r28	; 61
    14ea:	8a e2       	ldi	r24, 0x2A	; 42
    14ec:	90 e0       	ldi	r25, 0x00	; 0
    14ee:	2f ef       	ldi	r18, 0xFF	; 255
    14f0:	fc 01       	movw	r30, r24
    14f2:	20 83       	st	Z, r18
    14f4:	80 e0       	ldi	r24, 0x00	; 0
    14f6:	90 e0       	ldi	r25, 0x00	; 0
    14f8:	a0 ea       	ldi	r26, 0xA0	; 160
    14fa:	b1 e4       	ldi	r27, 0x41	; 65
    14fc:	89 83       	std	Y+1, r24	; 0x01
    14fe:	9a 83       	std	Y+2, r25	; 0x02
    1500:	ab 83       	std	Y+3, r26	; 0x03
    1502:	bc 83       	std	Y+4, r27	; 0x04
    1504:	20 e0       	ldi	r18, 0x00	; 0
    1506:	30 e0       	ldi	r19, 0x00	; 0
    1508:	4a e7       	ldi	r20, 0x7A	; 122
    150a:	53 e4       	ldi	r21, 0x43	; 67
    150c:	69 81       	ldd	r22, Y+1	; 0x01
    150e:	7a 81       	ldd	r23, Y+2	; 0x02
    1510:	8b 81       	ldd	r24, Y+3	; 0x03
    1512:	9c 81       	ldd	r25, Y+4	; 0x04
    1514:	0e 94 9e 17 	call	0x2f3c	; 0x2f3c <__mulsf3>
    1518:	dc 01       	movw	r26, r24
    151a:	cb 01       	movw	r24, r22
    151c:	8b 8b       	std	Y+19, r24	; 0x13
    151e:	9c 8b       	std	Y+20, r25	; 0x14
    1520:	ad 8b       	std	Y+21, r26	; 0x15
    1522:	be 8b       	std	Y+22, r27	; 0x16
    1524:	20 e0       	ldi	r18, 0x00	; 0
    1526:	30 e0       	ldi	r19, 0x00	; 0
    1528:	40 e8       	ldi	r20, 0x80	; 128
    152a:	5f e3       	ldi	r21, 0x3F	; 63
    152c:	6b 89       	ldd	r22, Y+19	; 0x13
    152e:	7c 89       	ldd	r23, Y+20	; 0x14
    1530:	8d 89       	ldd	r24, Y+21	; 0x15
    1532:	9e 89       	ldd	r25, Y+22	; 0x16
    1534:	0e 94 4b 16 	call	0x2c96	; 0x2c96 <__cmpsf2>
    1538:	88 23       	and	r24, r24
    153a:	2c f4       	brge	.+10     	; 0x1546 <LCD_Init+0x70>
    153c:	81 e0       	ldi	r24, 0x01	; 1
    153e:	90 e0       	ldi	r25, 0x00	; 0
    1540:	98 8f       	std	Y+24, r25	; 0x18
    1542:	8f 8b       	std	Y+23, r24	; 0x17
    1544:	3f c0       	rjmp	.+126    	; 0x15c4 <LCD_Init+0xee>
    1546:	20 e0       	ldi	r18, 0x00	; 0
    1548:	3f ef       	ldi	r19, 0xFF	; 255
    154a:	4f e7       	ldi	r20, 0x7F	; 127
    154c:	57 e4       	ldi	r21, 0x47	; 71
    154e:	6b 89       	ldd	r22, Y+19	; 0x13
    1550:	7c 89       	ldd	r23, Y+20	; 0x14
    1552:	8d 89       	ldd	r24, Y+21	; 0x15
    1554:	9e 89       	ldd	r25, Y+22	; 0x16
    1556:	0e 94 9a 17 	call	0x2f34	; 0x2f34 <__gesf2>
    155a:	18 16       	cp	r1, r24
    155c:	4c f5       	brge	.+82     	; 0x15b0 <LCD_Init+0xda>
    155e:	20 e0       	ldi	r18, 0x00	; 0
    1560:	30 e0       	ldi	r19, 0x00	; 0
    1562:	40 e2       	ldi	r20, 0x20	; 32
    1564:	51 e4       	ldi	r21, 0x41	; 65
    1566:	69 81       	ldd	r22, Y+1	; 0x01
    1568:	7a 81       	ldd	r23, Y+2	; 0x02
    156a:	8b 81       	ldd	r24, Y+3	; 0x03
    156c:	9c 81       	ldd	r25, Y+4	; 0x04
    156e:	0e 94 9e 17 	call	0x2f3c	; 0x2f3c <__mulsf3>
    1572:	dc 01       	movw	r26, r24
    1574:	cb 01       	movw	r24, r22
    1576:	bc 01       	movw	r22, r24
    1578:	cd 01       	movw	r24, r26
    157a:	0e 94 bc 16 	call	0x2d78	; 0x2d78 <__fixunssfsi>
    157e:	dc 01       	movw	r26, r24
    1580:	cb 01       	movw	r24, r22
    1582:	98 8f       	std	Y+24, r25	; 0x18
    1584:	8f 8b       	std	Y+23, r24	; 0x17
    1586:	0f c0       	rjmp	.+30     	; 0x15a6 <LCD_Init+0xd0>
    1588:	89 e1       	ldi	r24, 0x19	; 25
    158a:	90 e0       	ldi	r25, 0x00	; 0
    158c:	9a 8f       	std	Y+26, r25	; 0x1a
    158e:	89 8f       	std	Y+25, r24	; 0x19
    1590:	89 8d       	ldd	r24, Y+25	; 0x19
    1592:	9a 8d       	ldd	r25, Y+26	; 0x1a
    1594:	01 97       	sbiw	r24, 0x01	; 1
    1596:	f1 f7       	brne	.-4      	; 0x1594 <LCD_Init+0xbe>
    1598:	9a 8f       	std	Y+26, r25	; 0x1a
    159a:	89 8f       	std	Y+25, r24	; 0x19
    159c:	8f 89       	ldd	r24, Y+23	; 0x17
    159e:	98 8d       	ldd	r25, Y+24	; 0x18
    15a0:	01 97       	sbiw	r24, 0x01	; 1
    15a2:	98 8f       	std	Y+24, r25	; 0x18
    15a4:	8f 8b       	std	Y+23, r24	; 0x17
    15a6:	8f 89       	ldd	r24, Y+23	; 0x17
    15a8:	98 8d       	ldd	r25, Y+24	; 0x18
    15aa:	89 2b       	or	r24, r25
    15ac:	69 f7       	brne	.-38     	; 0x1588 <LCD_Init+0xb2>
    15ae:	14 c0       	rjmp	.+40     	; 0x15d8 <LCD_Init+0x102>
    15b0:	6b 89       	ldd	r22, Y+19	; 0x13
    15b2:	7c 89       	ldd	r23, Y+20	; 0x14
    15b4:	8d 89       	ldd	r24, Y+21	; 0x15
    15b6:	9e 89       	ldd	r25, Y+22	; 0x16
    15b8:	0e 94 bc 16 	call	0x2d78	; 0x2d78 <__fixunssfsi>
    15bc:	dc 01       	movw	r26, r24
    15be:	cb 01       	movw	r24, r22
    15c0:	98 8f       	std	Y+24, r25	; 0x18
    15c2:	8f 8b       	std	Y+23, r24	; 0x17
    15c4:	8f 89       	ldd	r24, Y+23	; 0x17
    15c6:	98 8d       	ldd	r25, Y+24	; 0x18
    15c8:	9c 8f       	std	Y+28, r25	; 0x1c
    15ca:	8b 8f       	std	Y+27, r24	; 0x1b
    15cc:	8b 8d       	ldd	r24, Y+27	; 0x1b
    15ce:	9c 8d       	ldd	r25, Y+28	; 0x1c
    15d0:	01 97       	sbiw	r24, 0x01	; 1
    15d2:	f1 f7       	brne	.-4      	; 0x15d0 <LCD_Init+0xfa>
    15d4:	9c 8f       	std	Y+28, r25	; 0x1c
    15d6:	8b 8f       	std	Y+27, r24	; 0x1b
    15d8:	82 e0       	ldi	r24, 0x02	; 2
    15da:	0e 94 e7 00 	call	0x1ce	; 0x1ce <LCD_Commands>
    15de:	88 e2       	ldi	r24, 0x28	; 40
    15e0:	0e 94 e7 00 	call	0x1ce	; 0x1ce <LCD_Commands>
    15e4:	8c e0       	ldi	r24, 0x0C	; 12
    15e6:	0e 94 e7 00 	call	0x1ce	; 0x1ce <LCD_Commands>
    15ea:	86 e0       	ldi	r24, 0x06	; 6
    15ec:	0e 94 e7 00 	call	0x1ce	; 0x1ce <LCD_Commands>
    15f0:	81 e0       	ldi	r24, 0x01	; 1
    15f2:	0e 94 e7 00 	call	0x1ce	; 0x1ce <LCD_Commands>
    15f6:	80 e0       	ldi	r24, 0x00	; 0
    15f8:	90 e0       	ldi	r25, 0x00	; 0
    15fa:	a0 e0       	ldi	r26, 0x00	; 0
    15fc:	b0 e4       	ldi	r27, 0x40	; 64
    15fe:	8d 83       	std	Y+5, r24	; 0x05
    1600:	9e 83       	std	Y+6, r25	; 0x06
    1602:	af 83       	std	Y+7, r26	; 0x07
    1604:	b8 87       	std	Y+8, r27	; 0x08
    1606:	20 e0       	ldi	r18, 0x00	; 0
    1608:	30 e0       	ldi	r19, 0x00	; 0
    160a:	4a e7       	ldi	r20, 0x7A	; 122
    160c:	53 e4       	ldi	r21, 0x43	; 67
    160e:	6d 81       	ldd	r22, Y+5	; 0x05
    1610:	7e 81       	ldd	r23, Y+6	; 0x06
    1612:	8f 81       	ldd	r24, Y+7	; 0x07
    1614:	98 85       	ldd	r25, Y+8	; 0x08
    1616:	0e 94 9e 17 	call	0x2f3c	; 0x2f3c <__mulsf3>
    161a:	dc 01       	movw	r26, r24
    161c:	cb 01       	movw	r24, r22
    161e:	89 87       	std	Y+9, r24	; 0x09
    1620:	9a 87       	std	Y+10, r25	; 0x0a
    1622:	ab 87       	std	Y+11, r26	; 0x0b
    1624:	bc 87       	std	Y+12, r27	; 0x0c
    1626:	20 e0       	ldi	r18, 0x00	; 0
    1628:	30 e0       	ldi	r19, 0x00	; 0
    162a:	40 e8       	ldi	r20, 0x80	; 128
    162c:	5f e3       	ldi	r21, 0x3F	; 63
    162e:	69 85       	ldd	r22, Y+9	; 0x09
    1630:	7a 85       	ldd	r23, Y+10	; 0x0a
    1632:	8b 85       	ldd	r24, Y+11	; 0x0b
    1634:	9c 85       	ldd	r25, Y+12	; 0x0c
    1636:	0e 94 4b 16 	call	0x2c96	; 0x2c96 <__cmpsf2>
    163a:	88 23       	and	r24, r24
    163c:	2c f4       	brge	.+10     	; 0x1648 <LCD_Init+0x172>
    163e:	81 e0       	ldi	r24, 0x01	; 1
    1640:	90 e0       	ldi	r25, 0x00	; 0
    1642:	9e 87       	std	Y+14, r25	; 0x0e
    1644:	8d 87       	std	Y+13, r24	; 0x0d
    1646:	3f c0       	rjmp	.+126    	; 0x16c6 <LCD_Init+0x1f0>
    1648:	20 e0       	ldi	r18, 0x00	; 0
    164a:	3f ef       	ldi	r19, 0xFF	; 255
    164c:	4f e7       	ldi	r20, 0x7F	; 127
    164e:	57 e4       	ldi	r21, 0x47	; 71
    1650:	69 85       	ldd	r22, Y+9	; 0x09
    1652:	7a 85       	ldd	r23, Y+10	; 0x0a
    1654:	8b 85       	ldd	r24, Y+11	; 0x0b
    1656:	9c 85       	ldd	r25, Y+12	; 0x0c
    1658:	0e 94 9a 17 	call	0x2f34	; 0x2f34 <__gesf2>
    165c:	18 16       	cp	r1, r24
    165e:	4c f5       	brge	.+82     	; 0x16b2 <LCD_Init+0x1dc>
    1660:	20 e0       	ldi	r18, 0x00	; 0
    1662:	30 e0       	ldi	r19, 0x00	; 0
    1664:	40 e2       	ldi	r20, 0x20	; 32
    1666:	51 e4       	ldi	r21, 0x41	; 65
    1668:	6d 81       	ldd	r22, Y+5	; 0x05
    166a:	7e 81       	ldd	r23, Y+6	; 0x06
    166c:	8f 81       	ldd	r24, Y+7	; 0x07
    166e:	98 85       	ldd	r25, Y+8	; 0x08
    1670:	0e 94 9e 17 	call	0x2f3c	; 0x2f3c <__mulsf3>
    1674:	dc 01       	movw	r26, r24
    1676:	cb 01       	movw	r24, r22
    1678:	bc 01       	movw	r22, r24
    167a:	cd 01       	movw	r24, r26
    167c:	0e 94 bc 16 	call	0x2d78	; 0x2d78 <__fixunssfsi>
    1680:	dc 01       	movw	r26, r24
    1682:	cb 01       	movw	r24, r22
    1684:	9e 87       	std	Y+14, r25	; 0x0e
    1686:	8d 87       	std	Y+13, r24	; 0x0d
    1688:	0f c0       	rjmp	.+30     	; 0x16a8 <LCD_Init+0x1d2>
    168a:	89 e1       	ldi	r24, 0x19	; 25
    168c:	90 e0       	ldi	r25, 0x00	; 0
    168e:	98 8b       	std	Y+16, r25	; 0x10
    1690:	8f 87       	std	Y+15, r24	; 0x0f
    1692:	8f 85       	ldd	r24, Y+15	; 0x0f
    1694:	98 89       	ldd	r25, Y+16	; 0x10
    1696:	01 97       	sbiw	r24, 0x01	; 1
    1698:	f1 f7       	brne	.-4      	; 0x1696 <LCD_Init+0x1c0>
    169a:	98 8b       	std	Y+16, r25	; 0x10
    169c:	8f 87       	std	Y+15, r24	; 0x0f
    169e:	8d 85       	ldd	r24, Y+13	; 0x0d
    16a0:	9e 85       	ldd	r25, Y+14	; 0x0e
    16a2:	01 97       	sbiw	r24, 0x01	; 1
    16a4:	9e 87       	std	Y+14, r25	; 0x0e
    16a6:	8d 87       	std	Y+13, r24	; 0x0d
    16a8:	8d 85       	ldd	r24, Y+13	; 0x0d
    16aa:	9e 85       	ldd	r25, Y+14	; 0x0e
    16ac:	89 2b       	or	r24, r25
    16ae:	69 f7       	brne	.-38     	; 0x168a <LCD_Init+0x1b4>
    16b0:	14 c0       	rjmp	.+40     	; 0x16da <LCD_Init+0x204>
    16b2:	69 85       	ldd	r22, Y+9	; 0x09
    16b4:	7a 85       	ldd	r23, Y+10	; 0x0a
    16b6:	8b 85       	ldd	r24, Y+11	; 0x0b
    16b8:	9c 85       	ldd	r25, Y+12	; 0x0c
    16ba:	0e 94 bc 16 	call	0x2d78	; 0x2d78 <__fixunssfsi>
    16be:	dc 01       	movw	r26, r24
    16c0:	cb 01       	movw	r24, r22
    16c2:	9e 87       	std	Y+14, r25	; 0x0e
    16c4:	8d 87       	std	Y+13, r24	; 0x0d
    16c6:	8d 85       	ldd	r24, Y+13	; 0x0d
    16c8:	9e 85       	ldd	r25, Y+14	; 0x0e
    16ca:	9a 8b       	std	Y+18, r25	; 0x12
    16cc:	89 8b       	std	Y+17, r24	; 0x11
    16ce:	89 89       	ldd	r24, Y+17	; 0x11
    16d0:	9a 89       	ldd	r25, Y+18	; 0x12
    16d2:	01 97       	sbiw	r24, 0x01	; 1
    16d4:	f1 f7       	brne	.-4      	; 0x16d2 <LCD_Init+0x1fc>
    16d6:	9a 8b       	std	Y+18, r25	; 0x12
    16d8:	89 8b       	std	Y+17, r24	; 0x11
    16da:	00 00       	nop
    16dc:	6c 96       	adiw	r28, 0x1c	; 28
    16de:	0f b6       	in	r0, 0x3f	; 63
    16e0:	f8 94       	cli
    16e2:	de bf       	out	0x3e, r29	; 62
    16e4:	0f be       	out	0x3f, r0	; 63
    16e6:	cd bf       	out	0x3d, r28	; 61
    16e8:	df 91       	pop	r29
    16ea:	cf 91       	pop	r28
    16ec:	08 95       	ret

000016ee <LCD_String>:
    16ee:	cf 93       	push	r28
    16f0:	df 93       	push	r29
    16f2:	00 d0       	rcall	.+0      	; 0x16f4 <LCD_String+0x6>
    16f4:	00 d0       	rcall	.+0      	; 0x16f6 <LCD_String+0x8>
    16f6:	cd b7       	in	r28, 0x3d	; 61
    16f8:	de b7       	in	r29, 0x3e	; 62
    16fa:	9c 83       	std	Y+4, r25	; 0x04
    16fc:	8b 83       	std	Y+3, r24	; 0x03
    16fe:	1a 82       	std	Y+2, r1	; 0x02
    1700:	19 82       	std	Y+1, r1	; 0x01
    1702:	0e c0       	rjmp	.+28     	; 0x1720 <LCD_String+0x32>
    1704:	89 81       	ldd	r24, Y+1	; 0x01
    1706:	9a 81       	ldd	r25, Y+2	; 0x02
    1708:	2b 81       	ldd	r18, Y+3	; 0x03
    170a:	3c 81       	ldd	r19, Y+4	; 0x04
    170c:	82 0f       	add	r24, r18
    170e:	93 1f       	adc	r25, r19
    1710:	fc 01       	movw	r30, r24
    1712:	80 81       	ld	r24, Z
    1714:	1e da       	rcall	.-3012   	; 0xb52 <LCD_Char>
    1716:	89 81       	ldd	r24, Y+1	; 0x01
    1718:	9a 81       	ldd	r25, Y+2	; 0x02
    171a:	01 96       	adiw	r24, 0x01	; 1
    171c:	9a 83       	std	Y+2, r25	; 0x02
    171e:	89 83       	std	Y+1, r24	; 0x01
    1720:	89 81       	ldd	r24, Y+1	; 0x01
    1722:	9a 81       	ldd	r25, Y+2	; 0x02
    1724:	2b 81       	ldd	r18, Y+3	; 0x03
    1726:	3c 81       	ldd	r19, Y+4	; 0x04
    1728:	82 0f       	add	r24, r18
    172a:	93 1f       	adc	r25, r19
    172c:	fc 01       	movw	r30, r24
    172e:	80 81       	ld	r24, Z
    1730:	88 23       	and	r24, r24
    1732:	41 f7       	brne	.-48     	; 0x1704 <LCD_String+0x16>
    1734:	00 00       	nop
    1736:	0f 90       	pop	r0
    1738:	0f 90       	pop	r0
    173a:	0f 90       	pop	r0
    173c:	0f 90       	pop	r0
    173e:	df 91       	pop	r29
    1740:	cf 91       	pop	r28
    1742:	08 95       	ret

00001744 <LCD_Clear>:
    1744:	cf 93       	push	r28
    1746:	df 93       	push	r29
    1748:	cd b7       	in	r28, 0x3d	; 61
    174a:	de b7       	in	r29, 0x3e	; 62
    174c:	2e 97       	sbiw	r28, 0x0e	; 14
    174e:	0f b6       	in	r0, 0x3f	; 63
    1750:	f8 94       	cli
    1752:	de bf       	out	0x3e, r29	; 62
    1754:	0f be       	out	0x3f, r0	; 63
    1756:	cd bf       	out	0x3d, r28	; 61
    1758:	81 e0       	ldi	r24, 0x01	; 1
    175a:	0e 94 e7 00 	call	0x1ce	; 0x1ce <LCD_Commands>
    175e:	80 e0       	ldi	r24, 0x00	; 0
    1760:	90 e0       	ldi	r25, 0x00	; 0
    1762:	a0 e0       	ldi	r26, 0x00	; 0
    1764:	b0 e4       	ldi	r27, 0x40	; 64
    1766:	89 83       	std	Y+1, r24	; 0x01
    1768:	9a 83       	std	Y+2, r25	; 0x02
    176a:	ab 83       	std	Y+3, r26	; 0x03
    176c:	bc 83       	std	Y+4, r27	; 0x04
    176e:	20 e0       	ldi	r18, 0x00	; 0
    1770:	30 e0       	ldi	r19, 0x00	; 0
    1772:	4a e7       	ldi	r20, 0x7A	; 122
    1774:	53 e4       	ldi	r21, 0x43	; 67
    1776:	69 81       	ldd	r22, Y+1	; 0x01
    1778:	7a 81       	ldd	r23, Y+2	; 0x02
    177a:	8b 81       	ldd	r24, Y+3	; 0x03
    177c:	9c 81       	ldd	r25, Y+4	; 0x04
    177e:	0e 94 9e 17 	call	0x2f3c	; 0x2f3c <__mulsf3>
    1782:	dc 01       	movw	r26, r24
    1784:	cb 01       	movw	r24, r22
    1786:	8d 83       	std	Y+5, r24	; 0x05
    1788:	9e 83       	std	Y+6, r25	; 0x06
    178a:	af 83       	std	Y+7, r26	; 0x07
    178c:	b8 87       	std	Y+8, r27	; 0x08
    178e:	20 e0       	ldi	r18, 0x00	; 0
    1790:	30 e0       	ldi	r19, 0x00	; 0
    1792:	40 e8       	ldi	r20, 0x80	; 128
    1794:	5f e3       	ldi	r21, 0x3F	; 63
    1796:	6d 81       	ldd	r22, Y+5	; 0x05
    1798:	7e 81       	ldd	r23, Y+6	; 0x06
    179a:	8f 81       	ldd	r24, Y+7	; 0x07
    179c:	98 85       	ldd	r25, Y+8	; 0x08
    179e:	0e 94 4b 16 	call	0x2c96	; 0x2c96 <__cmpsf2>
    17a2:	88 23       	and	r24, r24
    17a4:	2c f4       	brge	.+10     	; 0x17b0 <LCD_Clear+0x6c>
    17a6:	81 e0       	ldi	r24, 0x01	; 1
    17a8:	90 e0       	ldi	r25, 0x00	; 0
    17aa:	9a 87       	std	Y+10, r25	; 0x0a
    17ac:	89 87       	std	Y+9, r24	; 0x09
    17ae:	3f c0       	rjmp	.+126    	; 0x182e <LCD_Clear+0xea>
    17b0:	20 e0       	ldi	r18, 0x00	; 0
    17b2:	3f ef       	ldi	r19, 0xFF	; 255
    17b4:	4f e7       	ldi	r20, 0x7F	; 127
    17b6:	57 e4       	ldi	r21, 0x47	; 71
    17b8:	6d 81       	ldd	r22, Y+5	; 0x05
    17ba:	7e 81       	ldd	r23, Y+6	; 0x06
    17bc:	8f 81       	ldd	r24, Y+7	; 0x07
    17be:	98 85       	ldd	r25, Y+8	; 0x08
    17c0:	0e 94 9a 17 	call	0x2f34	; 0x2f34 <__gesf2>
    17c4:	18 16       	cp	r1, r24
    17c6:	4c f5       	brge	.+82     	; 0x181a <LCD_Clear+0xd6>
    17c8:	20 e0       	ldi	r18, 0x00	; 0
    17ca:	30 e0       	ldi	r19, 0x00	; 0
    17cc:	40 e2       	ldi	r20, 0x20	; 32
    17ce:	51 e4       	ldi	r21, 0x41	; 65
    17d0:	69 81       	ldd	r22, Y+1	; 0x01
    17d2:	7a 81       	ldd	r23, Y+2	; 0x02
    17d4:	8b 81       	ldd	r24, Y+3	; 0x03
    17d6:	9c 81       	ldd	r25, Y+4	; 0x04
    17d8:	0e 94 9e 17 	call	0x2f3c	; 0x2f3c <__mulsf3>
    17dc:	dc 01       	movw	r26, r24
    17de:	cb 01       	movw	r24, r22
    17e0:	bc 01       	movw	r22, r24
    17e2:	cd 01       	movw	r24, r26
    17e4:	0e 94 bc 16 	call	0x2d78	; 0x2d78 <__fixunssfsi>
    17e8:	dc 01       	movw	r26, r24
    17ea:	cb 01       	movw	r24, r22
    17ec:	9a 87       	std	Y+10, r25	; 0x0a
    17ee:	89 87       	std	Y+9, r24	; 0x09
    17f0:	0f c0       	rjmp	.+30     	; 0x1810 <LCD_Clear+0xcc>
    17f2:	89 e1       	ldi	r24, 0x19	; 25
    17f4:	90 e0       	ldi	r25, 0x00	; 0
    17f6:	9c 87       	std	Y+12, r25	; 0x0c
    17f8:	8b 87       	std	Y+11, r24	; 0x0b
    17fa:	8b 85       	ldd	r24, Y+11	; 0x0b
    17fc:	9c 85       	ldd	r25, Y+12	; 0x0c
    17fe:	01 97       	sbiw	r24, 0x01	; 1
    1800:	f1 f7       	brne	.-4      	; 0x17fe <LCD_Clear+0xba>
    1802:	9c 87       	std	Y+12, r25	; 0x0c
    1804:	8b 87       	std	Y+11, r24	; 0x0b
    1806:	89 85       	ldd	r24, Y+9	; 0x09
    1808:	9a 85       	ldd	r25, Y+10	; 0x0a
    180a:	01 97       	sbiw	r24, 0x01	; 1
    180c:	9a 87       	std	Y+10, r25	; 0x0a
    180e:	89 87       	std	Y+9, r24	; 0x09
    1810:	89 85       	ldd	r24, Y+9	; 0x09
    1812:	9a 85       	ldd	r25, Y+10	; 0x0a
    1814:	89 2b       	or	r24, r25
    1816:	69 f7       	brne	.-38     	; 0x17f2 <LCD_Clear+0xae>
    1818:	14 c0       	rjmp	.+40     	; 0x1842 <LCD_Clear+0xfe>
    181a:	6d 81       	ldd	r22, Y+5	; 0x05
    181c:	7e 81       	ldd	r23, Y+6	; 0x06
    181e:	8f 81       	ldd	r24, Y+7	; 0x07
    1820:	98 85       	ldd	r25, Y+8	; 0x08
    1822:	0e 94 bc 16 	call	0x2d78	; 0x2d78 <__fixunssfsi>
    1826:	dc 01       	movw	r26, r24
    1828:	cb 01       	movw	r24, r22
    182a:	9a 87       	std	Y+10, r25	; 0x0a
    182c:	89 87       	std	Y+9, r24	; 0x09
    182e:	89 85       	ldd	r24, Y+9	; 0x09
    1830:	9a 85       	ldd	r25, Y+10	; 0x0a
    1832:	9e 87       	std	Y+14, r25	; 0x0e
    1834:	8d 87       	std	Y+13, r24	; 0x0d
    1836:	8d 85       	ldd	r24, Y+13	; 0x0d
    1838:	9e 85       	ldd	r25, Y+14	; 0x0e
    183a:	01 97       	sbiw	r24, 0x01	; 1
    183c:	f1 f7       	brne	.-4      	; 0x183a <LCD_Clear+0xf6>
    183e:	9e 87       	std	Y+14, r25	; 0x0e
    1840:	8d 87       	std	Y+13, r24	; 0x0d
    1842:	80 e8       	ldi	r24, 0x80	; 128
    1844:	0e 94 e7 00 	call	0x1ce	; 0x1ce <LCD_Commands>
    1848:	00 00       	nop
    184a:	2e 96       	adiw	r28, 0x0e	; 14
    184c:	0f b6       	in	r0, 0x3f	; 63
    184e:	f8 94       	cli
    1850:	de bf       	out	0x3e, r29	; 62
    1852:	0f be       	out	0x3f, r0	; 63
    1854:	cd bf       	out	0x3d, r28	; 61
    1856:	df 91       	pop	r29
    1858:	cf 91       	pop	r28
    185a:	08 95       	ret

0000185c <set_PWM>:
    185c:	0f 93       	push	r16
    185e:	1f 93       	push	r17
    1860:	cf 93       	push	r28
    1862:	df 93       	push	r29
    1864:	00 d0       	rcall	.+0      	; 0x1866 <set_PWM+0xa>
    1866:	00 d0       	rcall	.+0      	; 0x1868 <set_PWM+0xc>
    1868:	cd b7       	in	r28, 0x3d	; 61
    186a:	de b7       	in	r29, 0x3e	; 62
    186c:	69 83       	std	Y+1, r22	; 0x01
    186e:	7a 83       	std	Y+2, r23	; 0x02
    1870:	8b 83       	std	Y+3, r24	; 0x03
    1872:	9c 83       	std	Y+4, r25	; 0x04
    1874:	80 91 30 07 	lds	r24, 0x0730	; 0x800730 <current_frequency.2111>
    1878:	90 91 31 07 	lds	r25, 0x0731	; 0x800731 <current_frequency.2111+0x1>
    187c:	a0 91 32 07 	lds	r26, 0x0732	; 0x800732 <current_frequency.2111+0x2>
    1880:	b0 91 33 07 	lds	r27, 0x0733	; 0x800733 <current_frequency.2111+0x3>
    1884:	9c 01       	movw	r18, r24
    1886:	ad 01       	movw	r20, r26
    1888:	69 81       	ldd	r22, Y+1	; 0x01
    188a:	7a 81       	ldd	r23, Y+2	; 0x02
    188c:	8b 81       	ldd	r24, Y+3	; 0x03
    188e:	9c 81       	ldd	r25, Y+4	; 0x04
    1890:	0e 94 4b 16 	call	0x2c96	; 0x2c96 <__cmpsf2>
    1894:	88 23       	and	r24, r24
    1896:	09 f4       	brne	.+2      	; 0x189a <set_PWM+0x3e>
    1898:	77 c0       	rjmp	.+238    	; 0x1988 <set_PWM+0x12c>
    189a:	20 e0       	ldi	r18, 0x00	; 0
    189c:	30 e0       	ldi	r19, 0x00	; 0
    189e:	a9 01       	movw	r20, r18
    18a0:	69 81       	ldd	r22, Y+1	; 0x01
    18a2:	7a 81       	ldd	r23, Y+2	; 0x02
    18a4:	8b 81       	ldd	r24, Y+3	; 0x03
    18a6:	9c 81       	ldd	r25, Y+4	; 0x04
    18a8:	0e 94 4b 16 	call	0x2c96	; 0x2c96 <__cmpsf2>
    18ac:	88 23       	and	r24, r24
    18ae:	51 f4       	brne	.+20     	; 0x18c4 <set_PWM+0x68>
    18b0:	81 e9       	ldi	r24, 0x91	; 145
    18b2:	90 e0       	ldi	r25, 0x00	; 0
    18b4:	21 e9       	ldi	r18, 0x91	; 145
    18b6:	30 e0       	ldi	r19, 0x00	; 0
    18b8:	f9 01       	movw	r30, r18
    18ba:	20 81       	ld	r18, Z
    18bc:	28 70       	andi	r18, 0x08	; 8
    18be:	fc 01       	movw	r30, r24
    18c0:	20 83       	st	Z, r18
    18c2:	09 c0       	rjmp	.+18     	; 0x18d6 <set_PWM+0x7a>
    18c4:	81 e9       	ldi	r24, 0x91	; 145
    18c6:	90 e0       	ldi	r25, 0x00	; 0
    18c8:	21 e9       	ldi	r18, 0x91	; 145
    18ca:	30 e0       	ldi	r19, 0x00	; 0
    18cc:	f9 01       	movw	r30, r18
    18ce:	20 81       	ld	r18, Z
    18d0:	23 60       	ori	r18, 0x03	; 3
    18d2:	fc 01       	movw	r30, r24
    18d4:	20 83       	st	Z, r18
    18d6:	28 e5       	ldi	r18, 0x58	; 88
    18d8:	39 e3       	ldi	r19, 0x39	; 57
    18da:	44 e7       	ldi	r20, 0x74	; 116
    18dc:	5f e3       	ldi	r21, 0x3F	; 63
    18de:	69 81       	ldd	r22, Y+1	; 0x01
    18e0:	7a 81       	ldd	r23, Y+2	; 0x02
    18e2:	8b 81       	ldd	r24, Y+3	; 0x03
    18e4:	9c 81       	ldd	r25, Y+4	; 0x04
    18e6:	0e 94 4b 16 	call	0x2c96	; 0x2c96 <__cmpsf2>
    18ea:	88 23       	and	r24, r24
    18ec:	44 f4       	brge	.+16     	; 0x18fe <set_PWM+0xa2>
    18ee:	88 e9       	ldi	r24, 0x98	; 152
    18f0:	90 e0       	ldi	r25, 0x00	; 0
    18f2:	2f ef       	ldi	r18, 0xFF	; 255
    18f4:	3f ef       	ldi	r19, 0xFF	; 255
    18f6:	fc 01       	movw	r30, r24
    18f8:	31 83       	std	Z+1, r19	; 0x01
    18fa:	20 83       	st	Z, r18
    18fc:	34 c0       	rjmp	.+104    	; 0x1966 <set_PWM+0x10a>
    18fe:	20 e0       	ldi	r18, 0x00	; 0
    1900:	34 e2       	ldi	r19, 0x24	; 36
    1902:	44 ef       	ldi	r20, 0xF4	; 244
    1904:	56 e4       	ldi	r21, 0x46	; 70
    1906:	69 81       	ldd	r22, Y+1	; 0x01
    1908:	7a 81       	ldd	r23, Y+2	; 0x02
    190a:	8b 81       	ldd	r24, Y+3	; 0x03
    190c:	9c 81       	ldd	r25, Y+4	; 0x04
    190e:	0e 94 9a 17 	call	0x2f34	; 0x2f34 <__gesf2>
    1912:	18 16       	cp	r1, r24
    1914:	34 f4       	brge	.+12     	; 0x1922 <set_PWM+0xc6>
    1916:	88 e9       	ldi	r24, 0x98	; 152
    1918:	90 e0       	ldi	r25, 0x00	; 0
    191a:	fc 01       	movw	r30, r24
    191c:	11 82       	std	Z+1, r1	; 0x01
    191e:	10 82       	st	Z, r1
    1920:	22 c0       	rjmp	.+68     	; 0x1966 <set_PWM+0x10a>
    1922:	08 e9       	ldi	r16, 0x98	; 152
    1924:	10 e0       	ldi	r17, 0x00	; 0
    1926:	20 e0       	ldi	r18, 0x00	; 0
    1928:	30 e0       	ldi	r19, 0x00	; 0
    192a:	40 e0       	ldi	r20, 0x00	; 0
    192c:	53 e4       	ldi	r21, 0x43	; 67
    192e:	69 81       	ldd	r22, Y+1	; 0x01
    1930:	7a 81       	ldd	r23, Y+2	; 0x02
    1932:	8b 81       	ldd	r24, Y+3	; 0x03
    1934:	9c 81       	ldd	r25, Y+4	; 0x04
    1936:	0e 94 9e 17 	call	0x2f3c	; 0x2f3c <__mulsf3>
    193a:	dc 01       	movw	r26, r24
    193c:	cb 01       	movw	r24, r22
    193e:	9c 01       	movw	r18, r24
    1940:	ad 01       	movw	r20, r26
    1942:	60 e0       	ldi	r22, 0x00	; 0
    1944:	74 e2       	ldi	r23, 0x24	; 36
    1946:	84 ef       	ldi	r24, 0xF4	; 244
    1948:	9a e4       	ldi	r25, 0x4A	; 74
    194a:	0e 94 4f 16 	call	0x2c9e	; 0x2c9e <__divsf3>
    194e:	dc 01       	movw	r26, r24
    1950:	cb 01       	movw	r24, r22
    1952:	bc 01       	movw	r22, r24
    1954:	cd 01       	movw	r24, r26
    1956:	0e 94 b7 16 	call	0x2d6e	; 0x2d6e <__fixsfsi>
    195a:	dc 01       	movw	r26, r24
    195c:	cb 01       	movw	r24, r22
    195e:	01 97       	sbiw	r24, 0x01	; 1
    1960:	f8 01       	movw	r30, r16
    1962:	91 83       	std	Z+1, r25	; 0x01
    1964:	80 83       	st	Z, r24
    1966:	84 e9       	ldi	r24, 0x94	; 148
    1968:	90 e0       	ldi	r25, 0x00	; 0
    196a:	fc 01       	movw	r30, r24
    196c:	11 82       	std	Z+1, r1	; 0x01
    196e:	10 82       	st	Z, r1
    1970:	89 81       	ldd	r24, Y+1	; 0x01
    1972:	9a 81       	ldd	r25, Y+2	; 0x02
    1974:	ab 81       	ldd	r26, Y+3	; 0x03
    1976:	bc 81       	ldd	r27, Y+4	; 0x04
    1978:	80 93 30 07 	sts	0x0730, r24	; 0x800730 <current_frequency.2111>
    197c:	90 93 31 07 	sts	0x0731, r25	; 0x800731 <current_frequency.2111+0x1>
    1980:	a0 93 32 07 	sts	0x0732, r26	; 0x800732 <current_frequency.2111+0x2>
    1984:	b0 93 33 07 	sts	0x0733, r27	; 0x800733 <current_frequency.2111+0x3>
    1988:	00 00       	nop
    198a:	0f 90       	pop	r0
    198c:	0f 90       	pop	r0
    198e:	0f 90       	pop	r0
    1990:	0f 90       	pop	r0
    1992:	df 91       	pop	r29
    1994:	cf 91       	pop	r28
    1996:	1f 91       	pop	r17
    1998:	0f 91       	pop	r16
    199a:	08 95       	ret

0000199c <PWM_on>:
    199c:	cf 93       	push	r28
    199e:	df 93       	push	r29
    19a0:	cd b7       	in	r28, 0x3d	; 61
    19a2:	de b7       	in	r29, 0x3e	; 62
    19a4:	80 e9       	ldi	r24, 0x90	; 144
    19a6:	90 e0       	ldi	r25, 0x00	; 0
    19a8:	20 e4       	ldi	r18, 0x40	; 64
    19aa:	fc 01       	movw	r30, r24
    19ac:	20 83       	st	Z, r18
    19ae:	81 e9       	ldi	r24, 0x91	; 145
    19b0:	90 e0       	ldi	r25, 0x00	; 0
    19b2:	2b e0       	ldi	r18, 0x0B	; 11
    19b4:	fc 01       	movw	r30, r24
    19b6:	20 83       	st	Z, r18
    19b8:	60 e0       	ldi	r22, 0x00	; 0
    19ba:	70 e0       	ldi	r23, 0x00	; 0
    19bc:	cb 01       	movw	r24, r22
    19be:	4e df       	rcall	.-356    	; 0x185c <set_PWM>
    19c0:	00 00       	nop
    19c2:	df 91       	pop	r29
    19c4:	cf 91       	pop	r28
    19c6:	08 95       	ret

000019c8 <TimerOn>:
    19c8:	cf 93       	push	r28
    19ca:	df 93       	push	r29
    19cc:	cd b7       	in	r28, 0x3d	; 61
    19ce:	de b7       	in	r29, 0x3e	; 62
    19d0:	81 e8       	ldi	r24, 0x81	; 129
    19d2:	90 e0       	ldi	r25, 0x00	; 0
    19d4:	2b e0       	ldi	r18, 0x0B	; 11
    19d6:	fc 01       	movw	r30, r24
    19d8:	20 83       	st	Z, r18
    19da:	88 e8       	ldi	r24, 0x88	; 136
    19dc:	90 e0       	ldi	r25, 0x00	; 0
    19de:	2f e0       	ldi	r18, 0x0F	; 15
    19e0:	30 e0       	ldi	r19, 0x00	; 0
    19e2:	fc 01       	movw	r30, r24
    19e4:	31 83       	std	Z+1, r19	; 0x01
    19e6:	20 83       	st	Z, r18
    19e8:	8f e6       	ldi	r24, 0x6F	; 111
    19ea:	90 e0       	ldi	r25, 0x00	; 0
    19ec:	22 e0       	ldi	r18, 0x02	; 2
    19ee:	fc 01       	movw	r30, r24
    19f0:	20 83       	st	Z, r18
    19f2:	84 e8       	ldi	r24, 0x84	; 132
    19f4:	90 e0       	ldi	r25, 0x00	; 0
    19f6:	fc 01       	movw	r30, r24
    19f8:	11 82       	std	Z+1, r1	; 0x01
    19fa:	10 82       	st	Z, r1
    19fc:	80 91 00 01 	lds	r24, 0x0100	; 0x800100 <__data_start>
    1a00:	90 91 01 01 	lds	r25, 0x0101	; 0x800101 <__data_start+0x1>
    1a04:	a0 91 02 01 	lds	r26, 0x0102	; 0x800102 <__data_start+0x2>
    1a08:	b0 91 03 01 	lds	r27, 0x0103	; 0x800103 <__data_start+0x3>
    1a0c:	80 93 2c 07 	sts	0x072C, r24	; 0x80072c <_avr_timer_cntcurr>
    1a10:	90 93 2d 07 	sts	0x072D, r25	; 0x80072d <_avr_timer_cntcurr+0x1>
    1a14:	a0 93 2e 07 	sts	0x072E, r26	; 0x80072e <_avr_timer_cntcurr+0x2>
    1a18:	b0 93 2f 07 	sts	0x072F, r27	; 0x80072f <_avr_timer_cntcurr+0x3>
    1a1c:	8f e5       	ldi	r24, 0x5F	; 95
    1a1e:	90 e0       	ldi	r25, 0x00	; 0
    1a20:	2f e5       	ldi	r18, 0x5F	; 95
    1a22:	30 e0       	ldi	r19, 0x00	; 0
    1a24:	f9 01       	movw	r30, r18
    1a26:	20 81       	ld	r18, Z
    1a28:	20 68       	ori	r18, 0x80	; 128
    1a2a:	fc 01       	movw	r30, r24
    1a2c:	20 83       	st	Z, r18
    1a2e:	00 00       	nop
    1a30:	df 91       	pop	r29
    1a32:	cf 91       	pop	r28
    1a34:	08 95       	ret

00001a36 <TimerISR>:
//void TimerISR() { TimerFlag = 1; }
void TimerISR() {
    1a36:	0f 93       	push	r16
    1a38:	1f 93       	push	r17
    1a3a:	cf 93       	push	r28
    1a3c:	df 93       	push	r29
    1a3e:	1f 92       	push	r1
    1a40:	cd b7       	in	r28, 0x3d	; 61
    1a42:	de b7       	in	r29, 0x3e	; 62
	unsigned char i;
	for (i = 0; i < tasksNum; ++i) {                     // Heart of the scheduler code
    1a44:	19 82       	std	Y+1, r1	; 0x01
    1a46:	a6 c0       	rjmp	.+332    	; 0x1b94 <TimerISR+0x15e>
		if ( tasks[i].elapsedTime >= tasks[i].period ) { // Ready
    1a48:	89 81       	ldd	r24, Y+1	; 0x01
    1a4a:	28 2f       	mov	r18, r24
    1a4c:	30 e0       	ldi	r19, 0x00	; 0
    1a4e:	c9 01       	movw	r24, r18
    1a50:	88 0f       	add	r24, r24
    1a52:	99 1f       	adc	r25, r25
    1a54:	82 0f       	add	r24, r18
    1a56:	93 1f       	adc	r25, r19
    1a58:	88 0f       	add	r24, r24
    1a5a:	99 1f       	adc	r25, r25
    1a5c:	88 0f       	add	r24, r24
    1a5e:	99 1f       	adc	r25, r25
    1a60:	8a 5b       	subi	r24, 0xBA	; 186
    1a62:	98 4f       	sbci	r25, 0xF8	; 248
    1a64:	fc 01       	movw	r30, r24
    1a66:	20 81       	ld	r18, Z
    1a68:	31 81       	ldd	r19, Z+1	; 0x01
    1a6a:	42 81       	ldd	r20, Z+2	; 0x02
    1a6c:	53 81       	ldd	r21, Z+3	; 0x03
    1a6e:	89 81       	ldd	r24, Y+1	; 0x01
    1a70:	68 2f       	mov	r22, r24
    1a72:	70 e0       	ldi	r23, 0x00	; 0
    1a74:	cb 01       	movw	r24, r22
    1a76:	88 0f       	add	r24, r24
    1a78:	99 1f       	adc	r25, r25
    1a7a:	86 0f       	add	r24, r22
    1a7c:	97 1f       	adc	r25, r23
    1a7e:	88 0f       	add	r24, r24
    1a80:	99 1f       	adc	r25, r25
    1a82:	88 0f       	add	r24, r24
    1a84:	99 1f       	adc	r25, r25
    1a86:	8e 5b       	subi	r24, 0xBE	; 190
    1a88:	98 4f       	sbci	r25, 0xF8	; 248
    1a8a:	fc 01       	movw	r30, r24
    1a8c:	80 81       	ld	r24, Z
    1a8e:	91 81       	ldd	r25, Z+1	; 0x01
    1a90:	a2 81       	ldd	r26, Z+2	; 0x02
    1a92:	b3 81       	ldd	r27, Z+3	; 0x03
    1a94:	28 17       	cp	r18, r24
    1a96:	39 07       	cpc	r19, r25
    1a98:	4a 07       	cpc	r20, r26
    1a9a:	5b 07       	cpc	r21, r27
    1a9c:	08 f4       	brcc	.+2      	; 0x1aa0 <TimerISR+0x6a>
    1a9e:	49 c0       	rjmp	.+146    	; 0x1b32 <TimerISR+0xfc>
			tasks[i].state = tasks[i].TickFct(tasks[i].state);
    1aa0:	89 81       	ldd	r24, Y+1	; 0x01
    1aa2:	08 2f       	mov	r16, r24
    1aa4:	10 e0       	ldi	r17, 0x00	; 0
    1aa6:	89 81       	ldd	r24, Y+1	; 0x01
    1aa8:	28 2f       	mov	r18, r24
    1aaa:	30 e0       	ldi	r19, 0x00	; 0
    1aac:	c9 01       	movw	r24, r18
    1aae:	88 0f       	add	r24, r24
    1ab0:	99 1f       	adc	r25, r25
    1ab2:	82 0f       	add	r24, r18
    1ab4:	93 1f       	adc	r25, r19
    1ab6:	88 0f       	add	r24, r24
    1ab8:	99 1f       	adc	r25, r25
    1aba:	88 0f       	add	r24, r24
    1abc:	99 1f       	adc	r25, r25
    1abe:	86 5b       	subi	r24, 0xB6	; 182
    1ac0:	98 4f       	sbci	r25, 0xF8	; 248
    1ac2:	fc 01       	movw	r30, r24
    1ac4:	40 81       	ld	r20, Z
    1ac6:	51 81       	ldd	r21, Z+1	; 0x01
    1ac8:	89 81       	ldd	r24, Y+1	; 0x01
    1aca:	28 2f       	mov	r18, r24
    1acc:	30 e0       	ldi	r19, 0x00	; 0
    1ace:	c9 01       	movw	r24, r18
    1ad0:	88 0f       	add	r24, r24
    1ad2:	99 1f       	adc	r25, r25
    1ad4:	82 0f       	add	r24, r18
    1ad6:	93 1f       	adc	r25, r19
    1ad8:	88 0f       	add	r24, r24
    1ada:	99 1f       	adc	r25, r25
    1adc:	88 0f       	add	r24, r24
    1ade:	99 1f       	adc	r25, r25
    1ae0:	80 5c       	subi	r24, 0xC0	; 192
    1ae2:	98 4f       	sbci	r25, 0xF8	; 248
    1ae4:	fc 01       	movw	r30, r24
    1ae6:	80 81       	ld	r24, Z
    1ae8:	91 81       	ldd	r25, Z+1	; 0x01
    1aea:	fa 01       	movw	r30, r20
    1aec:	09 95       	icall
    1aee:	9c 01       	movw	r18, r24
    1af0:	c8 01       	movw	r24, r16
    1af2:	88 0f       	add	r24, r24
    1af4:	99 1f       	adc	r25, r25
    1af6:	80 0f       	add	r24, r16
    1af8:	91 1f       	adc	r25, r17
    1afa:	88 0f       	add	r24, r24
    1afc:	99 1f       	adc	r25, r25
    1afe:	88 0f       	add	r24, r24
    1b00:	99 1f       	adc	r25, r25
    1b02:	80 5c       	subi	r24, 0xC0	; 192
    1b04:	98 4f       	sbci	r25, 0xF8	; 248
    1b06:	fc 01       	movw	r30, r24
    1b08:	31 83       	std	Z+1, r19	; 0x01
    1b0a:	20 83       	st	Z, r18
			tasks[i].elapsedTime = 0;
    1b0c:	89 81       	ldd	r24, Y+1	; 0x01
    1b0e:	28 2f       	mov	r18, r24
    1b10:	30 e0       	ldi	r19, 0x00	; 0
    1b12:	c9 01       	movw	r24, r18
    1b14:	88 0f       	add	r24, r24
    1b16:	99 1f       	adc	r25, r25
    1b18:	82 0f       	add	r24, r18
    1b1a:	93 1f       	adc	r25, r19
    1b1c:	88 0f       	add	r24, r24
    1b1e:	99 1f       	adc	r25, r25
    1b20:	88 0f       	add	r24, r24
    1b22:	99 1f       	adc	r25, r25
    1b24:	8a 5b       	subi	r24, 0xBA	; 186
    1b26:	98 4f       	sbci	r25, 0xF8	; 248
    1b28:	fc 01       	movw	r30, r24
    1b2a:	10 82       	st	Z, r1
    1b2c:	11 82       	std	Z+1, r1	; 0x01
    1b2e:	12 82       	std	Z+2, r1	; 0x02
    1b30:	13 82       	std	Z+3, r1	; 0x03
		}
		tasks[i].elapsedTime += tasksPeriodGCD;
    1b32:	89 81       	ldd	r24, Y+1	; 0x01
    1b34:	68 2f       	mov	r22, r24
    1b36:	70 e0       	ldi	r23, 0x00	; 0
    1b38:	89 81       	ldd	r24, Y+1	; 0x01
    1b3a:	28 2f       	mov	r18, r24
    1b3c:	30 e0       	ldi	r19, 0x00	; 0
    1b3e:	c9 01       	movw	r24, r18
    1b40:	88 0f       	add	r24, r24
    1b42:	99 1f       	adc	r25, r25
    1b44:	82 0f       	add	r24, r18
    1b46:	93 1f       	adc	r25, r19
    1b48:	88 0f       	add	r24, r24
    1b4a:	99 1f       	adc	r25, r25
    1b4c:	88 0f       	add	r24, r24
    1b4e:	99 1f       	adc	r25, r25
    1b50:	8a 5b       	subi	r24, 0xBA	; 186
    1b52:	98 4f       	sbci	r25, 0xF8	; 248
    1b54:	fc 01       	movw	r30, r24
    1b56:	80 81       	ld	r24, Z
    1b58:	91 81       	ldd	r25, Z+1	; 0x01
    1b5a:	a2 81       	ldd	r26, Z+2	; 0x02
    1b5c:	b3 81       	ldd	r27, Z+3	; 0x03
    1b5e:	22 e0       	ldi	r18, 0x02	; 2
    1b60:	30 e0       	ldi	r19, 0x00	; 0
    1b62:	40 e0       	ldi	r20, 0x00	; 0
    1b64:	50 e0       	ldi	r21, 0x00	; 0
    1b66:	28 0f       	add	r18, r24
    1b68:	39 1f       	adc	r19, r25
    1b6a:	4a 1f       	adc	r20, r26
    1b6c:	5b 1f       	adc	r21, r27
    1b6e:	cb 01       	movw	r24, r22
    1b70:	88 0f       	add	r24, r24
    1b72:	99 1f       	adc	r25, r25
    1b74:	86 0f       	add	r24, r22
    1b76:	97 1f       	adc	r25, r23
    1b78:	88 0f       	add	r24, r24
    1b7a:	99 1f       	adc	r25, r25
    1b7c:	88 0f       	add	r24, r24
    1b7e:	99 1f       	adc	r25, r25
    1b80:	8a 5b       	subi	r24, 0xBA	; 186
    1b82:	98 4f       	sbci	r25, 0xF8	; 248
    1b84:	fc 01       	movw	r30, r24
    1b86:	20 83       	st	Z, r18
    1b88:	31 83       	std	Z+1, r19	; 0x01
    1b8a:	42 83       	std	Z+2, r20	; 0x02
    1b8c:	53 83       	std	Z+3, r21	; 0x03
	TCCR1B = 0x00; // bit3bit1bit0=000: timer off
}
//void TimerISR() { TimerFlag = 1; }
void TimerISR() {
	unsigned char i;
	for (i = 0; i < tasksNum; ++i) {                     // Heart of the scheduler code
    1b8e:	89 81       	ldd	r24, Y+1	; 0x01
    1b90:	8f 5f       	subi	r24, 0xFF	; 255
    1b92:	89 83       	std	Y+1, r24	; 0x01
    1b94:	85 e0       	ldi	r24, 0x05	; 5
    1b96:	99 81       	ldd	r25, Y+1	; 0x01
    1b98:	98 17       	cp	r25, r24
    1b9a:	08 f4       	brcc	.+2      	; 0x1b9e <TimerISR+0x168>
    1b9c:	55 cf       	rjmp	.-342    	; 0x1a48 <TimerISR+0x12>
			tasks[i].state = tasks[i].TickFct(tasks[i].state);
			tasks[i].elapsedTime = 0;
		}
		tasks[i].elapsedTime += tasksPeriodGCD;
	}
}
    1b9e:	00 00       	nop
    1ba0:	0f 90       	pop	r0
    1ba2:	df 91       	pop	r29
    1ba4:	cf 91       	pop	r28
    1ba6:	1f 91       	pop	r17
    1ba8:	0f 91       	pop	r16
    1baa:	08 95       	ret

00001bac <__vector_13>:
// In our approach, the C programmer does not touch this ISR, but rather TimerISR()
ISR(TIMER1_COMPA_vect) {
    1bac:	1f 92       	push	r1
    1bae:	0f 92       	push	r0
    1bb0:	00 90 5f 00 	lds	r0, 0x005F	; 0x80005f <__TEXT_REGION_LENGTH__+0x7e005f>
    1bb4:	0f 92       	push	r0
    1bb6:	11 24       	eor	r1, r1
    1bb8:	00 90 5b 00 	lds	r0, 0x005B	; 0x80005b <__TEXT_REGION_LENGTH__+0x7e005b>
    1bbc:	0f 92       	push	r0
    1bbe:	2f 93       	push	r18
    1bc0:	3f 93       	push	r19
    1bc2:	4f 93       	push	r20
    1bc4:	5f 93       	push	r21
    1bc6:	6f 93       	push	r22
    1bc8:	7f 93       	push	r23
    1bca:	8f 93       	push	r24
    1bcc:	9f 93       	push	r25
    1bce:	af 93       	push	r26
    1bd0:	bf 93       	push	r27
    1bd2:	ef 93       	push	r30
    1bd4:	ff 93       	push	r31
    1bd6:	cf 93       	push	r28
    1bd8:	df 93       	push	r29
    1bda:	cd b7       	in	r28, 0x3d	; 61
    1bdc:	de b7       	in	r29, 0x3e	; 62
	// CPU automatically calls when TCNT1 == OCR1 (every 1 ms per TimerOn settings)
	_avr_timer_cntcurr--; // Count down to 0 rather than up to TOP
    1bde:	80 91 2c 07 	lds	r24, 0x072C	; 0x80072c <_avr_timer_cntcurr>
    1be2:	90 91 2d 07 	lds	r25, 0x072D	; 0x80072d <_avr_timer_cntcurr+0x1>
    1be6:	a0 91 2e 07 	lds	r26, 0x072E	; 0x80072e <_avr_timer_cntcurr+0x2>
    1bea:	b0 91 2f 07 	lds	r27, 0x072F	; 0x80072f <_avr_timer_cntcurr+0x3>
    1bee:	01 97       	sbiw	r24, 0x01	; 1
    1bf0:	a1 09       	sbc	r26, r1
    1bf2:	b1 09       	sbc	r27, r1
    1bf4:	80 93 2c 07 	sts	0x072C, r24	; 0x80072c <_avr_timer_cntcurr>
    1bf8:	90 93 2d 07 	sts	0x072D, r25	; 0x80072d <_avr_timer_cntcurr+0x1>
    1bfc:	a0 93 2e 07 	sts	0x072E, r26	; 0x80072e <_avr_timer_cntcurr+0x2>
    1c00:	b0 93 2f 07 	sts	0x072F, r27	; 0x80072f <_avr_timer_cntcurr+0x3>
	if (_avr_timer_cntcurr == 0) { // results in a more efficient compare
    1c04:	80 91 2c 07 	lds	r24, 0x072C	; 0x80072c <_avr_timer_cntcurr>
    1c08:	90 91 2d 07 	lds	r25, 0x072D	; 0x80072d <_avr_timer_cntcurr+0x1>
    1c0c:	a0 91 2e 07 	lds	r26, 0x072E	; 0x80072e <_avr_timer_cntcurr+0x2>
    1c10:	b0 91 2f 07 	lds	r27, 0x072F	; 0x80072f <_avr_timer_cntcurr+0x3>
    1c14:	89 2b       	or	r24, r25
    1c16:	8a 2b       	or	r24, r26
    1c18:	8b 2b       	or	r24, r27
    1c1a:	89 f4       	brne	.+34     	; 0x1c3e <__vector_13+0x92>
		TimerISR(); // Call the ISR that the user uses
    1c1c:	0c df       	rcall	.-488    	; 0x1a36 <TimerISR>
		_avr_timer_cntcurr = _avr_timer_M;
    1c1e:	80 91 00 01 	lds	r24, 0x0100	; 0x800100 <__data_start>
    1c22:	90 91 01 01 	lds	r25, 0x0101	; 0x800101 <__data_start+0x1>
    1c26:	a0 91 02 01 	lds	r26, 0x0102	; 0x800102 <__data_start+0x2>
    1c2a:	b0 91 03 01 	lds	r27, 0x0103	; 0x800103 <__data_start+0x3>
    1c2e:	80 93 2c 07 	sts	0x072C, r24	; 0x80072c <_avr_timer_cntcurr>
    1c32:	90 93 2d 07 	sts	0x072D, r25	; 0x80072d <_avr_timer_cntcurr+0x1>
    1c36:	a0 93 2e 07 	sts	0x072E, r26	; 0x80072e <_avr_timer_cntcurr+0x2>
    1c3a:	b0 93 2f 07 	sts	0x072F, r27	; 0x80072f <_avr_timer_cntcurr+0x3>
	}
}
    1c3e:	00 00       	nop
    1c40:	df 91       	pop	r29
    1c42:	cf 91       	pop	r28
    1c44:	ff 91       	pop	r31
    1c46:	ef 91       	pop	r30
    1c48:	bf 91       	pop	r27
    1c4a:	af 91       	pop	r26
    1c4c:	9f 91       	pop	r25
    1c4e:	8f 91       	pop	r24
    1c50:	7f 91       	pop	r23
    1c52:	6f 91       	pop	r22
    1c54:	5f 91       	pop	r21
    1c56:	4f 91       	pop	r20
    1c58:	3f 91       	pop	r19
    1c5a:	2f 91       	pop	r18
    1c5c:	0f 90       	pop	r0
    1c5e:	00 92 5b 00 	sts	0x005B, r0	; 0x80005b <__TEXT_REGION_LENGTH__+0x7e005b>
    1c62:	0f 90       	pop	r0
    1c64:	00 92 5f 00 	sts	0x005F, r0	; 0x80005f <__TEXT_REGION_LENGTH__+0x7e005f>
    1c68:	0f 90       	pop	r0
    1c6a:	1f 90       	pop	r1
    1c6c:	18 95       	reti

00001c6e <TimerSet>:

// Set TimerISR() to tick every M ms
void TimerSet(unsigned long M) {
    1c6e:	cf 93       	push	r28
    1c70:	df 93       	push	r29
    1c72:	00 d0       	rcall	.+0      	; 0x1c74 <TimerSet+0x6>
    1c74:	00 d0       	rcall	.+0      	; 0x1c76 <TimerSet+0x8>
    1c76:	cd b7       	in	r28, 0x3d	; 61
    1c78:	de b7       	in	r29, 0x3e	; 62
    1c7a:	69 83       	std	Y+1, r22	; 0x01
    1c7c:	7a 83       	std	Y+2, r23	; 0x02
    1c7e:	8b 83       	std	Y+3, r24	; 0x03
    1c80:	9c 83       	std	Y+4, r25	; 0x04
	_avr_timer_M = M;
    1c82:	89 81       	ldd	r24, Y+1	; 0x01
    1c84:	9a 81       	ldd	r25, Y+2	; 0x02
    1c86:	ab 81       	ldd	r26, Y+3	; 0x03
    1c88:	bc 81       	ldd	r27, Y+4	; 0x04
    1c8a:	80 93 00 01 	sts	0x0100, r24	; 0x800100 <__data_start>
    1c8e:	90 93 01 01 	sts	0x0101, r25	; 0x800101 <__data_start+0x1>
    1c92:	a0 93 02 01 	sts	0x0102, r26	; 0x800102 <__data_start+0x2>
    1c96:	b0 93 03 01 	sts	0x0103, r27	; 0x800103 <__data_start+0x3>
	_avr_timer_cntcurr = _avr_timer_M;
    1c9a:	80 91 00 01 	lds	r24, 0x0100	; 0x800100 <__data_start>
    1c9e:	90 91 01 01 	lds	r25, 0x0101	; 0x800101 <__data_start+0x1>
    1ca2:	a0 91 02 01 	lds	r26, 0x0102	; 0x800102 <__data_start+0x2>
    1ca6:	b0 91 03 01 	lds	r27, 0x0103	; 0x800103 <__data_start+0x3>
    1caa:	80 93 2c 07 	sts	0x072C, r24	; 0x80072c <_avr_timer_cntcurr>
    1cae:	90 93 2d 07 	sts	0x072D, r25	; 0x80072d <_avr_timer_cntcurr+0x1>
    1cb2:	a0 93 2e 07 	sts	0x072E, r26	; 0x80072e <_avr_timer_cntcurr+0x2>
    1cb6:	b0 93 2f 07 	sts	0x072F, r27	; 0x80072f <_avr_timer_cntcurr+0x3>
}
    1cba:	00 00       	nop
    1cbc:	0f 90       	pop	r0
    1cbe:	0f 90       	pop	r0
    1cc0:	0f 90       	pop	r0
    1cc2:	0f 90       	pop	r0
    1cc4:	df 91       	pop	r29
    1cc6:	cf 91       	pop	r28
    1cc8:	08 95       	ret

00001cca <GetBit>:


unsigned char GetBit(unsigned char x, unsigned char k) {
    1cca:	cf 93       	push	r28
    1ccc:	df 93       	push	r29
    1cce:	00 d0       	rcall	.+0      	; 0x1cd0 <GetBit+0x6>
    1cd0:	cd b7       	in	r28, 0x3d	; 61
    1cd2:	de b7       	in	r29, 0x3e	; 62
    1cd4:	89 83       	std	Y+1, r24	; 0x01
    1cd6:	6a 83       	std	Y+2, r22	; 0x02
	return ((x & (0x01 << k)) != 0);
    1cd8:	89 81       	ldd	r24, Y+1	; 0x01
    1cda:	88 2f       	mov	r24, r24
    1cdc:	90 e0       	ldi	r25, 0x00	; 0
    1cde:	2a 81       	ldd	r18, Y+2	; 0x02
    1ce0:	22 2f       	mov	r18, r18
    1ce2:	30 e0       	ldi	r19, 0x00	; 0
    1ce4:	02 c0       	rjmp	.+4      	; 0x1cea <GetBit+0x20>
    1ce6:	95 95       	asr	r25
    1ce8:	87 95       	ror	r24
    1cea:	2a 95       	dec	r18
    1cec:	e2 f7       	brpl	.-8      	; 0x1ce6 <GetBit+0x1c>
    1cee:	81 70       	andi	r24, 0x01	; 1
    1cf0:	99 27       	eor	r25, r25
    1cf2:	21 e0       	ldi	r18, 0x01	; 1
    1cf4:	89 2b       	or	r24, r25
    1cf6:	09 f4       	brne	.+2      	; 0x1cfa <GetBit+0x30>
    1cf8:	20 e0       	ldi	r18, 0x00	; 0
    1cfa:	82 2f       	mov	r24, r18
}
    1cfc:	0f 90       	pop	r0
    1cfe:	0f 90       	pop	r0
    1d00:	df 91       	pop	r29
    1d02:	cf 91       	pop	r28
    1d04:	08 95       	ret

00001d06 <Tick_bluetooth>:

//=================bluetooth_SM=================//
enum bluetooth_state{Bstart, receive};
int Tick_bluetooth (int state){
    1d06:	cf 93       	push	r28
    1d08:	df 93       	push	r29
    1d0a:	00 d0       	rcall	.+0      	; 0x1d0c <Tick_bluetooth+0x6>
    1d0c:	cd b7       	in	r28, 0x3d	; 61
    1d0e:	de b7       	in	r29, 0x3e	; 62
    1d10:	9a 83       	std	Y+2, r25	; 0x02
    1d12:	89 83       	std	Y+1, r24	; 0x01
	
	
	switch(state){	//transitions
    1d14:	89 81       	ldd	r24, Y+1	; 0x01
    1d16:	9a 81       	ldd	r25, Y+2	; 0x02
    1d18:	00 97       	sbiw	r24, 0x00	; 0
    1d1a:	19 f0       	breq	.+6      	; 0x1d22 <Tick_bluetooth+0x1c>
    1d1c:	01 97       	sbiw	r24, 0x01	; 1
    1d1e:	71 f0       	breq	.+28     	; 0x1d3c <Tick_bluetooth+0x36>
    1d20:	10 c0       	rjmp	.+32     	; 0x1d42 <Tick_bluetooth+0x3c>
		
		case Bstart:
		if(!USART_HasReceived(0)){
    1d22:	80 e0       	ldi	r24, 0x00	; 0
    1d24:	0e 94 ab 00 	call	0x156	; 0x156 <USART_HasReceived>
    1d28:	88 23       	and	r24, r24
    1d2a:	19 f4       	brne	.+6      	; 0x1d32 <Tick_bluetooth+0x2c>
			state = Bstart;
    1d2c:	1a 82       	std	Y+2, r1	; 0x02
    1d2e:	19 82       	std	Y+1, r1	; 0x01
		}else{
			state = receive;
		}
		//state = Bstart;
		
		break;
    1d30:	08 c0       	rjmp	.+16     	; 0x1d42 <Tick_bluetooth+0x3c>
		
		case Bstart:
		if(!USART_HasReceived(0)){
			state = Bstart;
		}else{
			state = receive;
    1d32:	81 e0       	ldi	r24, 0x01	; 1
    1d34:	90 e0       	ldi	r25, 0x00	; 0
    1d36:	9a 83       	std	Y+2, r25	; 0x02
    1d38:	89 83       	std	Y+1, r24	; 0x01
		}
		//state = Bstart;
		
		break;
    1d3a:	03 c0       	rjmp	.+6      	; 0x1d42 <Tick_bluetooth+0x3c>
		
		case receive:		
		state = Bstart;
    1d3c:	1a 82       	std	Y+2, r1	; 0x02
    1d3e:	19 82       	std	Y+1, r1	; 0x01
		break;
    1d40:	00 00       	nop
			
	}
	
	switch(state){		//actions
    1d42:	89 81       	ldd	r24, Y+1	; 0x01
    1d44:	9a 81       	ldd	r25, Y+2	; 0x02
    1d46:	00 97       	sbiw	r24, 0x00	; 0
    1d48:	09 f4       	brne	.+2      	; 0x1d4c <Tick_bluetooth+0x46>
    1d4a:	61 c0       	rjmp	.+194    	; 0x1e0e <Tick_bluetooth+0x108>
    1d4c:	01 97       	sbiw	r24, 0x01	; 1
    1d4e:	09 f0       	breq	.+2      	; 0x1d52 <Tick_bluetooth+0x4c>
    1d50:	61 c0       	rjmp	.+194    	; 0x1e14 <Tick_bluetooth+0x10e>
		case Bstart:
		break;
		
		case receive:
		Data_in = USART_Receive(0);						/* receive data from Blue-tooth device*/
    1d52:	80 e0       	ldi	r24, 0x00	; 0
    1d54:	0e 94 c3 00 	call	0x186	; 0x186 <USART_Receive>
    1d58:	80 93 7c 07 	sts	0x077C, r24	; 0x80077c <Data_in>
		if (GameStart != 0x01)
    1d5c:	80 91 27 07 	lds	r24, 0x0727	; 0x800727 <GameStart>
    1d60:	81 30       	cpi	r24, 0x01	; 1
    1d62:	71 f0       	breq	.+28     	; 0x1d80 <Tick_bluetooth+0x7a>
		{
			if (Data_in == '5')
    1d64:	80 91 7c 07 	lds	r24, 0x077C	; 0x80077c <Data_in>
    1d68:	85 33       	cpi	r24, 0x35	; 53
    1d6a:	09 f0       	breq	.+2      	; 0x1d6e <Tick_bluetooth+0x68>
    1d6c:	52 c0       	rjmp	.+164    	; 0x1e12 <Tick_bluetooth+0x10c>
			{
				GameStart = 0x01;
    1d6e:	81 e0       	ldi	r24, 0x01	; 1
    1d70:	80 93 27 07 	sts	0x0727, r24	; 0x800727 <GameStart>
				GameEnd = 0x00;
    1d74:	10 92 29 07 	sts	0x0729, r1	; 0x800729 <GameEnd>
				print = 0x01;
    1d78:	81 e0       	ldi	r24, 0x01	; 1
    1d7a:	80 93 26 07 	sts	0x0726, r24	; 0x800726 <print>
			}
			break;
    1d7e:	49 c0       	rjmp	.+146    	; 0x1e12 <Tick_bluetooth+0x10c>
		}else if(GameStart == 0x01){
    1d80:	80 91 27 07 	lds	r24, 0x0727	; 0x800727 <GameStart>
    1d84:	81 30       	cpi	r24, 0x01	; 1
    1d86:	79 f4       	brne	.+30     	; 0x1da6 <Tick_bluetooth+0xa0>
			if (Data_in == '5')
    1d88:	80 91 7c 07 	lds	r24, 0x077C	; 0x80077c <Data_in>
    1d8c:	85 33       	cpi	r24, 0x35	; 53
    1d8e:	59 f4       	brne	.+22     	; 0x1da6 <Tick_bluetooth+0xa0>
			{
				GameStart = 0x00;
    1d90:	10 92 27 07 	sts	0x0727, r1	; 0x800727 <GameStart>
				GameEnd = 0x00;
    1d94:	10 92 29 07 	sts	0x0729, r1	; 0x800729 <GameEnd>
				print = 0x00;
    1d98:	10 92 26 07 	sts	0x0726, r1	; 0x800726 <print>
				bluetoothOutput = 0;
    1d9c:	10 92 24 07 	sts	0x0724, r1	; 0x800724 <bluetoothOutput>
				bluetoothOutput_y = 0;
    1da0:	10 92 25 07 	sts	0x0725, r1	; 0x800725 <bluetoothOutput_y>
				break;
    1da4:	37 c0       	rjmp	.+110    	; 0x1e14 <Tick_bluetooth+0x10e>
			}
			
		}
		
		
		if(Data_in =='2'){
    1da6:	80 91 7c 07 	lds	r24, 0x077C	; 0x80077c <Data_in>
    1daa:	82 33       	cpi	r24, 0x32	; 50
    1dac:	79 f4       	brne	.+30     	; 0x1dcc <Tick_bluetooth+0xc6>
			if(bluetoothOutput < 120){
    1dae:	80 91 24 07 	lds	r24, 0x0724	; 0x800724 <bluetoothOutput>
    1db2:	88 37       	cpi	r24, 0x78	; 120
    1db4:	30 f4       	brcc	.+12     	; 0x1dc2 <Tick_bluetooth+0xbc>
				bluetoothOutput++;
    1db6:	80 91 24 07 	lds	r24, 0x0724	; 0x800724 <bluetoothOutput>
    1dba:	8f 5f       	subi	r24, 0xFF	; 255
    1dbc:	80 93 24 07 	sts	0x0724, r24	; 0x800724 <bluetoothOutput>
    1dc0:	02 c0       	rjmp	.+4      	; 0x1dc6 <Tick_bluetooth+0xc0>
			}else{
				bluetoothOutput = 0;
    1dc2:	10 92 24 07 	sts	0x0724, r1	; 0x800724 <bluetoothOutput>
			}			
			Data_in = 0x00;									/* Turn ON LED */
    1dc6:	10 92 7c 07 	sts	0x077C, r1	; 0x80077c <Data_in>
		}else{
			bluetoothOutput = 0;
		}
		
		
		break;
    1dca:	24 c0       	rjmp	.+72     	; 0x1e14 <Tick_bluetooth+0x10e>
			}else{
				bluetoothOutput = 0;
			}
			Data_in = 0x00;
		}*/
		else if (Data_in == '4'){
    1dcc:	80 91 7c 07 	lds	r24, 0x077C	; 0x80077c <Data_in>
    1dd0:	84 33       	cpi	r24, 0x34	; 52
    1dd2:	91 f4       	brne	.+36     	; 0x1df8 <Tick_bluetooth+0xf2>
			if(bluetoothOutput_y < 6){
    1dd4:	80 91 25 07 	lds	r24, 0x0725	; 0x800725 <bluetoothOutput_y>
    1dd8:	86 30       	cpi	r24, 0x06	; 6
    1dda:	58 f4       	brcc	.+22     	; 0x1df2 <Tick_bluetooth+0xec>
				bluetoothOutput_y+= 2;
    1ddc:	80 91 25 07 	lds	r24, 0x0725	; 0x800725 <bluetoothOutput_y>
    1de0:	8e 5f       	subi	r24, 0xFE	; 254
    1de2:	80 93 25 07 	sts	0x0725, r24	; 0x800725 <bluetoothOutput_y>
				bluetoothOutput++;
    1de6:	80 91 24 07 	lds	r24, 0x0724	; 0x800724 <bluetoothOutput>
    1dea:	8f 5f       	subi	r24, 0xFF	; 255
    1dec:	80 93 24 07 	sts	0x0724, r24	; 0x800724 <bluetoothOutput>
		}else{
			bluetoothOutput = 0;
		}
		
		
		break;
    1df0:	11 c0       	rjmp	.+34     	; 0x1e14 <Tick_bluetooth+0x10e>
		else if (Data_in == '4'){
			if(bluetoothOutput_y < 6){
				bluetoothOutput_y+= 2;
				bluetoothOutput++;
			}else{
				bluetoothOutput_y = 0;
    1df2:	10 92 25 07 	sts	0x0725, r1	; 0x800725 <bluetoothOutput_y>
		}else{
			bluetoothOutput = 0;
		}
		
		
		break;
    1df6:	0e c0       	rjmp	.+28     	; 0x1e14 <Tick_bluetooth+0x10e>
				bluetoothOutput_y+= 2;
				bluetoothOutput++;
			}else{
				bluetoothOutput_y = 0;
			}
		}else if(Data_in == '6'){
    1df8:	80 91 7c 07 	lds	r24, 0x077C	; 0x80077c <Data_in>
    1dfc:	86 33       	cpi	r24, 0x36	; 54
    1dfe:	21 f4       	brne	.+8      	; 0x1e08 <Tick_bluetooth+0x102>
			scorePrint = 0x01;
    1e00:	81 e0       	ldi	r24, 0x01	; 1
    1e02:	80 93 2a 07 	sts	0x072A, r24	; 0x80072a <scorePrint>
		}else{
			bluetoothOutput = 0;
		}
		
		
		break;
    1e06:	06 c0       	rjmp	.+12     	; 0x1e14 <Tick_bluetooth+0x10e>
				bluetoothOutput_y = 0;
			}
		}else if(Data_in == '6'){
			scorePrint = 0x01;
		}else{
			bluetoothOutput = 0;
    1e08:	10 92 24 07 	sts	0x0724, r1	; 0x800724 <bluetoothOutput>
		}
		
		
		break;
    1e0c:	03 c0       	rjmp	.+6      	; 0x1e14 <Tick_bluetooth+0x10e>
			
	}
	
	switch(state){		//actions
		case Bstart:
		break;
    1e0e:	00 00       	nop
    1e10:	01 c0       	rjmp	.+2      	; 0x1e14 <Tick_bluetooth+0x10e>
			{
				GameStart = 0x01;
				GameEnd = 0x00;
				print = 0x01;
			}
			break;
    1e12:	00 00       	nop
		}
		
		
		break;
	}
	return state;
    1e14:	89 81       	ldd	r24, Y+1	; 0x01
    1e16:	9a 81       	ldd	r25, Y+2	; 0x02
}
    1e18:	0f 90       	pop	r0
    1e1a:	0f 90       	pop	r0
    1e1c:	df 91       	pop	r29
    1e1e:	cf 91       	pop	r28
    1e20:	08 95       	ret

00001e22 <Tick_display>:


//=================display_SM=================//
enum display{start, displayMap, displayChar, check};
int Tick_display (int state){
    1e22:	cf 93       	push	r28
    1e24:	df 93       	push	r29
    1e26:	cd b7       	in	r28, 0x3d	; 61
    1e28:	de b7       	in	r29, 0x3e	; 62
    1e2a:	c4 57       	subi	r28, 0x74	; 116
    1e2c:	d1 40       	sbci	r29, 0x01	; 1
    1e2e:	0f b6       	in	r0, 0x3f	; 63
    1e30:	f8 94       	cli
    1e32:	de bf       	out	0x3e, r29	; 62
    1e34:	0f be       	out	0x3f, r0	; 63
    1e36:	cd bf       	out	0x3d, r28	; 61
    1e38:	9e 01       	movw	r18, r28
    1e3a:	2d 58       	subi	r18, 0x8D	; 141
    1e3c:	3e 4f       	sbci	r19, 0xFE	; 254
    1e3e:	f9 01       	movw	r30, r18
    1e40:	91 83       	std	Z+1, r25	; 0x01
    1e42:	80 83       	st	Z, r24
	
	char PORT[8] = {1,2,4,8,16,32,64,128}; //pin values of a port 2^0,2^1,2^22^7
    1e44:	88 e0       	ldi	r24, 0x08	; 8
    1e46:	e5 e0       	ldi	r30, 0x05	; 5
    1e48:	f1 e0       	ldi	r31, 0x01	; 1
    1e4a:	de 01       	movw	r26, r28
    1e4c:	13 96       	adiw	r26, 0x03	; 3
    1e4e:	01 90       	ld	r0, Z+
    1e50:	0d 92       	st	X+, r0
    1e52:	8a 95       	dec	r24
    1e54:	e1 f7       	brne	.-8      	; 0x1e4e <Tick_display+0x2c>
	
	char SCROLL_RED[] = {0b00000000,0b00000000,0b01000000,0b11000000,0b01000000,0b00000000,0b00000000,0b00001000,0b00000000,0b00001000,0b00101000,0b00001000,0b00000000,0b00000000,0b00000000,0b00000000,0b10000000,0b11000000,0b01000000,0b00000000,0b00000000,0b00000000,0b00000000,0b00000000,0b00000000,0b00000000,0b00000000,0b00000000,0b00000000,0b00000000,0b00000000,0b00000000,0b00000000,0b00001000,0b00000000,0b00000000,0b01000000,0b11000000,0b11100000,0b01000000,0b00000000,0b00000100,0b00000100,0b00010000,0b00010000,0b00010000,0b00010000,0b00000000,0b00000000,0b00000000,0b00000000,0b00000000,0b00010000,0b00010100,0b00000000,0b00000000,0b01001000,0b11001000,0b11000000,0b10000000,0b00001000,0b00000000,0b00101000,0b00000000,0b00001000,0b00000000,0b00000000,0b00100000,0b00100000,0b00000000,0b00000000,0b00101000,0b00100000,0b00000000,0b00000000,0b00000010,0b00000110,0b00001110,0b00000000,0b00001110,0b00000110,0b01000010,0b11000000,0b01000000,0b00000010,0b00000110,0b00001110,0b00001110,0b00000000,0b00001110,0b00000110,0b00000010,0b00000000,0b00000000,0b00000000,0b00000000,0b00000000,0b00001000,0b00001000,0b00000000,0b00000000,0b00000000,0b00000000,0b00000000,0b00000010,0b00000110,0b00001110,0b00011110,0b00011110,0b00000000,0b01000000,0b11100000,0b11100010,0b01000000,0b00000000,0b00001110,0b00111110,0b00011000,0b00111110,0b00001110};
    1e56:	88 e7       	ldi	r24, 0x78	; 120
    1e58:	ed e0       	ldi	r30, 0x0D	; 13
    1e5a:	f1 e0       	ldi	r31, 0x01	; 1
    1e5c:	de 01       	movw	r26, r28
    1e5e:	1b 96       	adiw	r26, 0x0b	; 11
    1e60:	01 90       	ld	r0, Z+
    1e62:	0d 92       	st	X+, r0
    1e64:	8a 95       	dec	r24
    1e66:	e1 f7       	brne	.-8      	; 0x1e60 <Tick_display+0x3e>
	char SCROLL[] = {0b00000001,0b00000001,0b01000001,0b11000001,0b01000001,0b00000001,0b00000001,0b00001001,0b00000001,0b00001001,0b00101001,0b00001001,0b00000001,0b00000001,0b00000001,0b00000001,0b10000111,0b11000111,0b01000001,0b00000001,0b00000001,0b00001111,0b00001111,0b00000001,0b00000001,0b00001111,0b00001111,0b00000001,0b00000001,0b00001111,0b00001111,0b00000001,0b00000001,0b00001001,0b00000001,0b00000001,0b01000001,0b11000001,0b11100000,0b01000000,0b00000001,0b00000101,0b00000101,0b00010001,0b00010001,0b00010001,0b00010001,0b00000001,0b00000001,0b00000000,0b00000000,0b00000000,0b00010001,0b00010101,0b00000001,0b00000001,0b01001001,0b11001001,0b11000001,0b10000001,0b00001001,0b00000001,0b00101001,0b00000001,0b00001001,0b00000001,0b00000001,0b00100001,0b00100001,0b00000001,0b00000001,0b00101001,0b00100001,0b00000001,0b00000001,0b00000011,0b00000111,0b00001111,0b00000001,0b00001111,0b00000111,0b01000011,0b11000001,0b01000001,0b00000011,0b00000111,0b00001111,0b00001111,0b00000000,0b00001111,0b00000111,0b00000011,0b00000001,0b00000111,0b00000111,0b00000001,0b00000001,0b00001001,0b00001001,0b00000001,0b00000001,0b00000001,0b00000111,0b00000111,0b00000011,0b00000111,0b00001111,0b00011111,0b00011111,0b00000001,0b01000001,0b11100001,0b11100011,0b01000001,0b00000001,0b00000001,0b00000001,0b00000001,0b00000001,0b00000001};
    1e68:	ce 01       	movw	r24, r28
    1e6a:	8d 57       	subi	r24, 0x7D	; 125
    1e6c:	9f 4f       	sbci	r25, 0xFF	; 255
    1e6e:	28 e7       	ldi	r18, 0x78	; 120
    1e70:	e5 e8       	ldi	r30, 0x85	; 133
    1e72:	f1 e0       	ldi	r31, 0x01	; 1
    1e74:	dc 01       	movw	r26, r24
    1e76:	01 90       	ld	r0, Z+
    1e78:	0d 92       	st	X+, r0
    1e7a:	2a 95       	dec	r18
    1e7c:	e1 f7       	brne	.-8      	; 0x1e76 <Tick_display+0x54>
	char SCROLL_BLUE[] = {0b00000000,0b00000000,0b01000000,0b11000000,0b01000000,0b00000000,0b00000000,0b00000000,0b00000000,0b00000000,0b00000000,0b00000000,0b00000000,0b00000000,0b00000000,0b00000000,0b10000000,0b11000000,0b01000000,0b00000000,0b00000000,0b00000000,0b00000000,0b00000000,0b00000000,0b00000000,0b00000000,0b00000000,0b00000000,0b00000000,0b00000000,0b00000000,0b00000000,0b00000000,0b00000000,0b00000000,0b01000000,0b11000000,0b11100000,0b01000000,0b00000000,0b00000000,0b00000000,0b00000000,0b00000000,0b00000000,0b00000000,0b00000000,0b00000000,0b00000000,0b00000000,0b00000000,0b00000000,0b00000000,0b00000000,0b00000000,0b01000000,0b11000000,0b11000000,0b10000000,0b00000000,0b00000000,0b00000000,0b00000000,0b00000000,0b00000000,0b00000000,0b00000000,0b00000000,0b00000000,0b00000000,0b00000000,0b00000000,0b00000000,0b00000000,0b00000000,0b00000000,0b00000000,0b00000000,0b00000000,0b00000000,0b01000000,0b11000000,0b01000000,0b00000000,0b00000000,0b00000000,0b00000000,0b00000000,0b00000000,0b00000000,0b00000000,0b00000000,0b00000000,0b00000000,0b00000000,0b00000000,0b00000000,0b00000000,0b00000000,0b00000000,0b00000000,0b00000000,0b00000000,0b00000000,0b00000000,0b00000000,0b00000000,0b00000000,0b00000000,0b01000000,0b11100000,0b11100000,0b01000000,0b00000000,0b00000000,0b00000000,0b00000000,0b00000000,0b00000000};
    1e7e:	ce 01       	movw	r24, r28
    1e80:	85 50       	subi	r24, 0x05	; 5
    1e82:	9f 4f       	sbci	r25, 0xFF	; 255
    1e84:	28 e7       	ldi	r18, 0x78	; 120
    1e86:	fc 01       	movw	r30, r24
    1e88:	32 2f       	mov	r19, r18
    1e8a:	11 92       	st	Z+, r1
    1e8c:	3a 95       	dec	r19
    1e8e:	e9 f7       	brne	.-6      	; 0x1e8a <Tick_display+0x68>
    1e90:	ce 01       	movw	r24, r28
    1e92:	85 50       	subi	r24, 0x05	; 5
    1e94:	9f 4f       	sbci	r25, 0xFF	; 255
    1e96:	20 e4       	ldi	r18, 0x40	; 64
    1e98:	fc 01       	movw	r30, r24
    1e9a:	22 83       	std	Z+2, r18	; 0x02
    1e9c:	ce 01       	movw	r24, r28
    1e9e:	85 50       	subi	r24, 0x05	; 5
    1ea0:	9f 4f       	sbci	r25, 0xFF	; 255
    1ea2:	20 ec       	ldi	r18, 0xC0	; 192
    1ea4:	fc 01       	movw	r30, r24
    1ea6:	23 83       	std	Z+3, r18	; 0x03
    1ea8:	ce 01       	movw	r24, r28
    1eaa:	85 50       	subi	r24, 0x05	; 5
    1eac:	9f 4f       	sbci	r25, 0xFF	; 255
    1eae:	20 e4       	ldi	r18, 0x40	; 64
    1eb0:	fc 01       	movw	r30, r24
    1eb2:	24 83       	std	Z+4, r18	; 0x04
    1eb4:	ce 01       	movw	r24, r28
    1eb6:	85 50       	subi	r24, 0x05	; 5
    1eb8:	9f 4f       	sbci	r25, 0xFF	; 255
    1eba:	20 e8       	ldi	r18, 0x80	; 128
    1ebc:	fc 01       	movw	r30, r24
    1ebe:	20 8b       	std	Z+16, r18	; 0x10
    1ec0:	ce 01       	movw	r24, r28
    1ec2:	85 50       	subi	r24, 0x05	; 5
    1ec4:	9f 4f       	sbci	r25, 0xFF	; 255
    1ec6:	20 ec       	ldi	r18, 0xC0	; 192
    1ec8:	fc 01       	movw	r30, r24
    1eca:	21 8b       	std	Z+17, r18	; 0x11
    1ecc:	ce 01       	movw	r24, r28
    1ece:	85 50       	subi	r24, 0x05	; 5
    1ed0:	9f 4f       	sbci	r25, 0xFF	; 255
    1ed2:	20 e4       	ldi	r18, 0x40	; 64
    1ed4:	fc 01       	movw	r30, r24
    1ed6:	22 8b       	std	Z+18, r18	; 0x12
    1ed8:	ce 01       	movw	r24, r28
    1eda:	85 50       	subi	r24, 0x05	; 5
    1edc:	9f 4f       	sbci	r25, 0xFF	; 255
    1ede:	20 e4       	ldi	r18, 0x40	; 64
    1ee0:	fc 01       	movw	r30, r24
    1ee2:	24 a3       	std	Z+36, r18	; 0x24
    1ee4:	ce 01       	movw	r24, r28
    1ee6:	85 50       	subi	r24, 0x05	; 5
    1ee8:	9f 4f       	sbci	r25, 0xFF	; 255
    1eea:	20 ec       	ldi	r18, 0xC0	; 192
    1eec:	fc 01       	movw	r30, r24
    1eee:	25 a3       	std	Z+37, r18	; 0x25
    1ef0:	ce 01       	movw	r24, r28
    1ef2:	85 50       	subi	r24, 0x05	; 5
    1ef4:	9f 4f       	sbci	r25, 0xFF	; 255
    1ef6:	20 ee       	ldi	r18, 0xE0	; 224
    1ef8:	fc 01       	movw	r30, r24
    1efa:	26 a3       	std	Z+38, r18	; 0x26
    1efc:	ce 01       	movw	r24, r28
    1efe:	85 50       	subi	r24, 0x05	; 5
    1f00:	9f 4f       	sbci	r25, 0xFF	; 255
    1f02:	20 e4       	ldi	r18, 0x40	; 64
    1f04:	fc 01       	movw	r30, r24
    1f06:	27 a3       	std	Z+39, r18	; 0x27
    1f08:	ce 01       	movw	r24, r28
    1f0a:	85 50       	subi	r24, 0x05	; 5
    1f0c:	9f 4f       	sbci	r25, 0xFF	; 255
    1f0e:	20 e4       	ldi	r18, 0x40	; 64
    1f10:	fc 01       	movw	r30, r24
    1f12:	20 af       	std	Z+56, r18	; 0x38
    1f14:	ce 01       	movw	r24, r28
    1f16:	85 50       	subi	r24, 0x05	; 5
    1f18:	9f 4f       	sbci	r25, 0xFF	; 255
    1f1a:	20 ec       	ldi	r18, 0xC0	; 192
    1f1c:	fc 01       	movw	r30, r24
    1f1e:	21 af       	std	Z+57, r18	; 0x39
    1f20:	ce 01       	movw	r24, r28
    1f22:	85 50       	subi	r24, 0x05	; 5
    1f24:	9f 4f       	sbci	r25, 0xFF	; 255
    1f26:	20 ec       	ldi	r18, 0xC0	; 192
    1f28:	fc 01       	movw	r30, r24
    1f2a:	22 af       	std	Z+58, r18	; 0x3a
    1f2c:	ce 01       	movw	r24, r28
    1f2e:	85 50       	subi	r24, 0x05	; 5
    1f30:	9f 4f       	sbci	r25, 0xFF	; 255
    1f32:	20 e8       	ldi	r18, 0x80	; 128
    1f34:	fc 01       	movw	r30, r24
    1f36:	23 af       	std	Z+59, r18	; 0x3b
    1f38:	ce 01       	movw	r24, r28
    1f3a:	85 50       	subi	r24, 0x05	; 5
    1f3c:	9f 4f       	sbci	r25, 0xFF	; 255
    1f3e:	8f 5a       	subi	r24, 0xAF	; 175
    1f40:	9f 4f       	sbci	r25, 0xFF	; 255
    1f42:	20 e4       	ldi	r18, 0x40	; 64
    1f44:	fc 01       	movw	r30, r24
    1f46:	20 83       	st	Z, r18
    1f48:	ce 01       	movw	r24, r28
    1f4a:	85 50       	subi	r24, 0x05	; 5
    1f4c:	9f 4f       	sbci	r25, 0xFF	; 255
    1f4e:	8e 5a       	subi	r24, 0xAE	; 174
    1f50:	9f 4f       	sbci	r25, 0xFF	; 255
    1f52:	20 ec       	ldi	r18, 0xC0	; 192
    1f54:	fc 01       	movw	r30, r24
    1f56:	20 83       	st	Z, r18
    1f58:	ce 01       	movw	r24, r28
    1f5a:	85 50       	subi	r24, 0x05	; 5
    1f5c:	9f 4f       	sbci	r25, 0xFF	; 255
    1f5e:	8d 5a       	subi	r24, 0xAD	; 173
    1f60:	9f 4f       	sbci	r25, 0xFF	; 255
    1f62:	20 e4       	ldi	r18, 0x40	; 64
    1f64:	fc 01       	movw	r30, r24
    1f66:	20 83       	st	Z, r18
    1f68:	ce 01       	movw	r24, r28
    1f6a:	85 50       	subi	r24, 0x05	; 5
    1f6c:	9f 4f       	sbci	r25, 0xFF	; 255
    1f6e:	82 59       	subi	r24, 0x92	; 146
    1f70:	9f 4f       	sbci	r25, 0xFF	; 255
    1f72:	20 e4       	ldi	r18, 0x40	; 64
    1f74:	fc 01       	movw	r30, r24
    1f76:	20 83       	st	Z, r18
    1f78:	ce 01       	movw	r24, r28
    1f7a:	85 50       	subi	r24, 0x05	; 5
    1f7c:	9f 4f       	sbci	r25, 0xFF	; 255
    1f7e:	81 59       	subi	r24, 0x91	; 145
    1f80:	9f 4f       	sbci	r25, 0xFF	; 255
    1f82:	20 ee       	ldi	r18, 0xE0	; 224
    1f84:	fc 01       	movw	r30, r24
    1f86:	20 83       	st	Z, r18
    1f88:	ce 01       	movw	r24, r28
    1f8a:	85 50       	subi	r24, 0x05	; 5
    1f8c:	9f 4f       	sbci	r25, 0xFF	; 255
    1f8e:	80 59       	subi	r24, 0x90	; 144
    1f90:	9f 4f       	sbci	r25, 0xFF	; 255
    1f92:	20 ee       	ldi	r18, 0xE0	; 224
    1f94:	fc 01       	movw	r30, r24
    1f96:	20 83       	st	Z, r18
    1f98:	ce 01       	movw	r24, r28
    1f9a:	85 50       	subi	r24, 0x05	; 5
    1f9c:	9f 4f       	sbci	r25, 0xFF	; 255
    1f9e:	8f 58       	subi	r24, 0x8F	; 143
    1fa0:	9f 4f       	sbci	r25, 0xFF	; 255
    1fa2:	20 e4       	ldi	r18, 0x40	; 64
    1fa4:	fc 01       	movw	r30, r24
    1fa6:	20 83       	st	Z, r18
	static unsigned char checkifcheck = 0x00;
	
	
	unsigned char num;
	
	switch(state){
    1fa8:	ce 01       	movw	r24, r28
    1faa:	8d 58       	subi	r24, 0x8D	; 141
    1fac:	9e 4f       	sbci	r25, 0xFE	; 254
    1fae:	fc 01       	movw	r30, r24
    1fb0:	80 81       	ld	r24, Z
    1fb2:	91 81       	ldd	r25, Z+1	; 0x01
    1fb4:	81 30       	cpi	r24, 0x01	; 1
    1fb6:	91 05       	cpc	r25, r1
    1fb8:	29 f1       	breq	.+74     	; 0x2004 <Tick_display+0x1e2>
    1fba:	82 30       	cpi	r24, 0x02	; 2
    1fbc:	91 05       	cpc	r25, r1
    1fbe:	1c f4       	brge	.+6      	; 0x1fc6 <Tick_display+0x1a4>
    1fc0:	89 2b       	or	r24, r25
    1fc2:	41 f0       	breq	.+16     	; 0x1fd4 <Tick_display+0x1b2>
    1fc4:	8e c0       	rjmp	.+284    	; 0x20e2 <Tick_display+0x2c0>
    1fc6:	82 30       	cpi	r24, 0x02	; 2
    1fc8:	91 05       	cpc	r25, r1
    1fca:	d9 f1       	breq	.+118    	; 0x2042 <Tick_display+0x220>
    1fcc:	03 97       	sbiw	r24, 0x03	; 3
    1fce:	09 f4       	brne	.+2      	; 0x1fd2 <Tick_display+0x1b0>
    1fd0:	74 c0       	rjmp	.+232    	; 0x20ba <Tick_display+0x298>
    1fd2:	87 c0       	rjmp	.+270    	; 0x20e2 <Tick_display+0x2c0>
		case start:
		if(GameStart == 0x01 && GameEnd != 0x01){
    1fd4:	80 91 27 07 	lds	r24, 0x0727	; 0x800727 <GameStart>
    1fd8:	81 30       	cpi	r24, 0x01	; 1
    1fda:	69 f4       	brne	.+26     	; 0x1ff6 <Tick_display+0x1d4>
    1fdc:	80 91 29 07 	lds	r24, 0x0729	; 0x800729 <GameEnd>
    1fe0:	81 30       	cpi	r24, 0x01	; 1
    1fe2:	49 f0       	breq	.+18     	; 0x1ff6 <Tick_display+0x1d4>
			state = displayMap;
    1fe4:	ce 01       	movw	r24, r28
    1fe6:	8d 58       	subi	r24, 0x8D	; 141
    1fe8:	9e 4f       	sbci	r25, 0xFE	; 254
    1fea:	21 e0       	ldi	r18, 0x01	; 1
    1fec:	30 e0       	ldi	r19, 0x00	; 0
    1fee:	fc 01       	movw	r30, r24
    1ff0:	31 83       	std	Z+1, r19	; 0x01
    1ff2:	20 83       	st	Z, r18
		}else{
			state = start;	
		}	
		break;
    1ff4:	7d c0       	rjmp	.+250    	; 0x20f0 <Tick_display+0x2ce>
	switch(state){
		case start:
		if(GameStart == 0x01 && GameEnd != 0x01){
			state = displayMap;
		}else{
			state = start;	
    1ff6:	ce 01       	movw	r24, r28
    1ff8:	8d 58       	subi	r24, 0x8D	; 141
    1ffa:	9e 4f       	sbci	r25, 0xFE	; 254
    1ffc:	fc 01       	movw	r30, r24
    1ffe:	11 82       	std	Z+1, r1	; 0x01
    2000:	10 82       	st	Z, r1
		}	
		break;
    2002:	76 c0       	rjmp	.+236    	; 0x20f0 <Tick_display+0x2ce>
		
		case displayMap:
		if (GameEnd == 0x01)
    2004:	80 91 29 07 	lds	r24, 0x0729	; 0x800729 <GameEnd>
    2008:	81 30       	cpi	r24, 0x01	; 1
    200a:	39 f4       	brne	.+14     	; 0x201a <Tick_display+0x1f8>
		{
			state = start;
    200c:	ce 01       	movw	r24, r28
    200e:	8d 58       	subi	r24, 0x8D	; 141
    2010:	9e 4f       	sbci	r25, 0xFE	; 254
    2012:	fc 01       	movw	r30, r24
    2014:	11 82       	std	Z+1, r1	; 0x01
    2016:	10 82       	st	Z, r1
		}else if(GameStart == 0x01){
			state = displayChar;
		}else{
			state = start;
		}		
		break;
    2018:	6b c0       	rjmp	.+214    	; 0x20f0 <Tick_display+0x2ce>
		
		case displayMap:
		if (GameEnd == 0x01)
		{
			state = start;
		}else if(GameStart == 0x01){
    201a:	80 91 27 07 	lds	r24, 0x0727	; 0x800727 <GameStart>
    201e:	81 30       	cpi	r24, 0x01	; 1
    2020:	49 f4       	brne	.+18     	; 0x2034 <Tick_display+0x212>
			state = displayChar;
    2022:	ce 01       	movw	r24, r28
    2024:	8d 58       	subi	r24, 0x8D	; 141
    2026:	9e 4f       	sbci	r25, 0xFE	; 254
    2028:	22 e0       	ldi	r18, 0x02	; 2
    202a:	30 e0       	ldi	r19, 0x00	; 0
    202c:	fc 01       	movw	r30, r24
    202e:	31 83       	std	Z+1, r19	; 0x01
    2030:	20 83       	st	Z, r18
		}else{
			state = start;
		}		
		break;
    2032:	5e c0       	rjmp	.+188    	; 0x20f0 <Tick_display+0x2ce>
		{
			state = start;
		}else if(GameStart == 0x01){
			state = displayChar;
		}else{
			state = start;
    2034:	ce 01       	movw	r24, r28
    2036:	8d 58       	subi	r24, 0x8D	; 141
    2038:	9e 4f       	sbci	r25, 0xFE	; 254
    203a:	fc 01       	movw	r30, r24
    203c:	11 82       	std	Z+1, r1	; 0x01
    203e:	10 82       	st	Z, r1
		}		
		break;
    2040:	57 c0       	rjmp	.+174    	; 0x20f0 <Tick_display+0x2ce>
		
		case displayChar:
		if (GameEnd == 0x01)
    2042:	80 91 29 07 	lds	r24, 0x0729	; 0x800729 <GameEnd>
    2046:	81 30       	cpi	r24, 0x01	; 1
    2048:	39 f4       	brne	.+14     	; 0x2058 <Tick_display+0x236>
		{
			state = start;
    204a:	ce 01       	movw	r24, r28
    204c:	8d 58       	subi	r24, 0x8D	; 141
    204e:	9e 4f       	sbci	r25, 0xFE	; 254
    2050:	fc 01       	movw	r30, r24
    2052:	11 82       	std	Z+1, r1	; 0x01
    2054:	10 82       	st	Z, r1
			checkifcheck += 2;
			state = displayMap;
		}else{
			state = start;
		}
		break;
    2056:	4c c0       	rjmp	.+152    	; 0x20f0 <Tick_display+0x2ce>
		
		case displayChar:
		if (GameEnd == 0x01)
		{
			state = start;
		}else if(GameStart == 0x01 && checkifcheck == 32){
    2058:	80 91 27 07 	lds	r24, 0x0727	; 0x800727 <GameStart>
    205c:	81 30       	cpi	r24, 0x01	; 1
    205e:	79 f4       	brne	.+30     	; 0x207e <Tick_display+0x25c>
    2060:	80 91 34 07 	lds	r24, 0x0734	; 0x800734 <checkifcheck.2194>
    2064:	80 32       	cpi	r24, 0x20	; 32
    2066:	59 f4       	brne	.+22     	; 0x207e <Tick_display+0x25c>
			checkifcheck = 0;
    2068:	10 92 34 07 	sts	0x0734, r1	; 0x800734 <checkifcheck.2194>
			state = check;
    206c:	ce 01       	movw	r24, r28
    206e:	8d 58       	subi	r24, 0x8D	; 141
    2070:	9e 4f       	sbci	r25, 0xFE	; 254
    2072:	23 e0       	ldi	r18, 0x03	; 3
    2074:	30 e0       	ldi	r19, 0x00	; 0
    2076:	fc 01       	movw	r30, r24
    2078:	31 83       	std	Z+1, r19	; 0x01
    207a:	20 83       	st	Z, r18
    207c:	1d c0       	rjmp	.+58     	; 0x20b8 <Tick_display+0x296>
		}else if(GameStart == 1 && checkifcheck != 32){
    207e:	80 91 27 07 	lds	r24, 0x0727	; 0x800727 <GameStart>
    2082:	81 30       	cpi	r24, 0x01	; 1
    2084:	91 f4       	brne	.+36     	; 0x20aa <Tick_display+0x288>
    2086:	80 91 34 07 	lds	r24, 0x0734	; 0x800734 <checkifcheck.2194>
    208a:	80 32       	cpi	r24, 0x20	; 32
    208c:	71 f0       	breq	.+28     	; 0x20aa <Tick_display+0x288>
			checkifcheck += 2;
    208e:	80 91 34 07 	lds	r24, 0x0734	; 0x800734 <checkifcheck.2194>
    2092:	8e 5f       	subi	r24, 0xFE	; 254
    2094:	80 93 34 07 	sts	0x0734, r24	; 0x800734 <checkifcheck.2194>
			state = displayMap;
    2098:	ce 01       	movw	r24, r28
    209a:	8d 58       	subi	r24, 0x8D	; 141
    209c:	9e 4f       	sbci	r25, 0xFE	; 254
    209e:	21 e0       	ldi	r18, 0x01	; 1
    20a0:	30 e0       	ldi	r19, 0x00	; 0
    20a2:	fc 01       	movw	r30, r24
    20a4:	31 83       	std	Z+1, r19	; 0x01
    20a6:	20 83       	st	Z, r18
    20a8:	07 c0       	rjmp	.+14     	; 0x20b8 <Tick_display+0x296>
		}else{
			state = start;
    20aa:	ce 01       	movw	r24, r28
    20ac:	8d 58       	subi	r24, 0x8D	; 141
    20ae:	9e 4f       	sbci	r25, 0xFE	; 254
    20b0:	fc 01       	movw	r30, r24
    20b2:	11 82       	std	Z+1, r1	; 0x01
    20b4:	10 82       	st	Z, r1
		}
		break;
    20b6:	1c c0       	rjmp	.+56     	; 0x20f0 <Tick_display+0x2ce>
    20b8:	1b c0       	rjmp	.+54     	; 0x20f0 <Tick_display+0x2ce>
		
		case check:
		if(GameStart == 0x01 ){
    20ba:	80 91 27 07 	lds	r24, 0x0727	; 0x800727 <GameStart>
    20be:	81 30       	cpi	r24, 0x01	; 1
    20c0:	49 f4       	brne	.+18     	; 0x20d4 <Tick_display+0x2b2>
			state = displayMap;
    20c2:	ce 01       	movw	r24, r28
    20c4:	8d 58       	subi	r24, 0x8D	; 141
    20c6:	9e 4f       	sbci	r25, 0xFE	; 254
    20c8:	21 e0       	ldi	r18, 0x01	; 1
    20ca:	30 e0       	ldi	r19, 0x00	; 0
    20cc:	fc 01       	movw	r30, r24
    20ce:	31 83       	std	Z+1, r19	; 0x01
    20d0:	20 83       	st	Z, r18
		}else{
			state = start;
		}
		break;
    20d2:	0e c0       	rjmp	.+28     	; 0x20f0 <Tick_display+0x2ce>
		
		case check:
		if(GameStart == 0x01 ){
			state = displayMap;
		}else{
			state = start;
    20d4:	ce 01       	movw	r24, r28
    20d6:	8d 58       	subi	r24, 0x8D	; 141
    20d8:	9e 4f       	sbci	r25, 0xFE	; 254
    20da:	fc 01       	movw	r30, r24
    20dc:	11 82       	std	Z+1, r1	; 0x01
    20de:	10 82       	st	Z, r1
		}
		break;
    20e0:	07 c0       	rjmp	.+14     	; 0x20f0 <Tick_display+0x2ce>
		
				
		default:
		state = start;
    20e2:	ce 01       	movw	r24, r28
    20e4:	8d 58       	subi	r24, 0x8D	; 141
    20e6:	9e 4f       	sbci	r25, 0xFE	; 254
    20e8:	fc 01       	movw	r30, r24
    20ea:	11 82       	std	Z+1, r1	; 0x01
    20ec:	10 82       	st	Z, r1
		break;
    20ee:	00 00       	nop
	}
	
	switch(state){
    20f0:	ce 01       	movw	r24, r28
    20f2:	8d 58       	subi	r24, 0x8D	; 141
    20f4:	9e 4f       	sbci	r25, 0xFE	; 254
    20f6:	fc 01       	movw	r30, r24
    20f8:	80 81       	ld	r24, Z
    20fa:	91 81       	ldd	r25, Z+1	; 0x01
    20fc:	81 30       	cpi	r24, 0x01	; 1
    20fe:	91 05       	cpc	r25, r1
    2100:	61 f0       	breq	.+24     	; 0x211a <Tick_display+0x2f8>
    2102:	82 30       	cpi	r24, 0x02	; 2
    2104:	91 05       	cpc	r25, r1
    2106:	0c f4       	brge	.+2      	; 0x210a <Tick_display+0x2e8>
    2108:	95 c1       	rjmp	.+810    	; 0x2434 <Tick_display+0x612>
    210a:	82 30       	cpi	r24, 0x02	; 2
    210c:	91 05       	cpc	r25, r1
    210e:	09 f4       	brne	.+2      	; 0x2112 <Tick_display+0x2f0>
    2110:	63 c0       	rjmp	.+198    	; 0x21d8 <Tick_display+0x3b6>
    2112:	03 97       	sbiw	r24, 0x03	; 3
    2114:	09 f4       	brne	.+2      	; 0x2118 <Tick_display+0x2f6>
    2116:	2e c1       	rjmp	.+604    	; 0x2374 <Tick_display+0x552>
    2118:	90 c1       	rjmp	.+800    	; 0x243a <Tick_display+0x618>
		case start:
		break;
		
		case displayMap:		
		if(i < 8){
    211a:	80 91 22 07 	lds	r24, 0x0722	; 0x800722 <__data_end>
    211e:	90 91 23 07 	lds	r25, 0x0723	; 0x800723 <__data_end+0x1>
    2122:	08 97       	sbiw	r24, 0x08	; 8
    2124:	0c f0       	brlt	.+2      	; 0x2128 <Tick_display+0x306>
    2126:	53 c0       	rjmp	.+166    	; 0x21ce <Tick_display+0x3ac>
			displayOutput_PortC = PORT[i];
    2128:	80 91 22 07 	lds	r24, 0x0722	; 0x800722 <__data_end>
    212c:	90 91 23 07 	lds	r25, 0x0723	; 0x800723 <__data_end+0x1>
    2130:	9e 01       	movw	r18, r28
    2132:	2d 5f       	subi	r18, 0xFD	; 253
    2134:	3f 4f       	sbci	r19, 0xFF	; 255
    2136:	82 0f       	add	r24, r18
    2138:	93 1f       	adc	r25, r19
    213a:	fc 01       	movw	r30, r24
    213c:	80 81       	ld	r24, Z
    213e:	80 93 7e 07 	sts	0x077E, r24	; 0x80077e <displayOutput_PortC>
						
			temp = SCROLL[i+bluetoothOutput] | SCROLL_RED[i+bluetoothOutput] | SCROLL_BLUE[i+bluetoothOutput];			
    2142:	80 91 24 07 	lds	r24, 0x0724	; 0x800724 <bluetoothOutput>
    2146:	28 2f       	mov	r18, r24
    2148:	30 e0       	ldi	r19, 0x00	; 0
    214a:	80 91 22 07 	lds	r24, 0x0722	; 0x800722 <__data_end>
    214e:	90 91 23 07 	lds	r25, 0x0723	; 0x800723 <__data_end+0x1>
    2152:	82 0f       	add	r24, r18
    2154:	93 1f       	adc	r25, r19
    2156:	9e 01       	movw	r18, r28
    2158:	2d 57       	subi	r18, 0x7D	; 125
    215a:	3f 4f       	sbci	r19, 0xFF	; 255
    215c:	82 0f       	add	r24, r18
    215e:	93 1f       	adc	r25, r19
    2160:	fc 01       	movw	r30, r24
    2162:	40 81       	ld	r20, Z
    2164:	80 91 24 07 	lds	r24, 0x0724	; 0x800724 <bluetoothOutput>
    2168:	28 2f       	mov	r18, r24
    216a:	30 e0       	ldi	r19, 0x00	; 0
    216c:	80 91 22 07 	lds	r24, 0x0722	; 0x800722 <__data_end>
    2170:	90 91 23 07 	lds	r25, 0x0723	; 0x800723 <__data_end+0x1>
    2174:	82 0f       	add	r24, r18
    2176:	93 1f       	adc	r25, r19
    2178:	9e 01       	movw	r18, r28
    217a:	25 5f       	subi	r18, 0xF5	; 245
    217c:	3f 4f       	sbci	r19, 0xFF	; 255
    217e:	82 0f       	add	r24, r18
    2180:	93 1f       	adc	r25, r19
    2182:	fc 01       	movw	r30, r24
    2184:	80 81       	ld	r24, Z
    2186:	48 2b       	or	r20, r24
    2188:	80 91 24 07 	lds	r24, 0x0724	; 0x800724 <bluetoothOutput>
    218c:	28 2f       	mov	r18, r24
    218e:	30 e0       	ldi	r19, 0x00	; 0
    2190:	80 91 22 07 	lds	r24, 0x0722	; 0x800722 <__data_end>
    2194:	90 91 23 07 	lds	r25, 0x0723	; 0x800723 <__data_end+0x1>
    2198:	82 0f       	add	r24, r18
    219a:	93 1f       	adc	r25, r19
    219c:	9e 01       	movw	r18, r28
    219e:	25 50       	subi	r18, 0x05	; 5
    21a0:	3f 4f       	sbci	r19, 0xFF	; 255
    21a2:	82 0f       	add	r24, r18
    21a4:	93 1f       	adc	r25, r19
    21a6:	fc 01       	movw	r30, r24
    21a8:	80 81       	ld	r24, Z
    21aa:	84 2b       	or	r24, r20
    21ac:	80 93 35 07 	sts	0x0735, r24	; 0x800735 <temp.2192>
			displayOutput_PortA = ~temp;
    21b0:	80 91 35 07 	lds	r24, 0x0735	; 0x800735 <temp.2192>
    21b4:	80 95       	com	r24
    21b6:	80 93 7d 07 	sts	0x077D, r24	; 0x80077d <displayOutput_PortA>
			
			i++;			
    21ba:	80 91 22 07 	lds	r24, 0x0722	; 0x800722 <__data_end>
    21be:	90 91 23 07 	lds	r25, 0x0723	; 0x800723 <__data_end+0x1>
    21c2:	01 96       	adiw	r24, 0x01	; 1
    21c4:	90 93 23 07 	sts	0x0723, r25	; 0x800723 <__data_end+0x1>
    21c8:	80 93 22 07 	sts	0x0722, r24	; 0x800722 <__data_end>
		}else{
			i = 0;
		}
		
				
		break;
    21cc:	36 c1       	rjmp	.+620    	; 0x243a <Tick_display+0x618>
			temp = SCROLL[i+bluetoothOutput] | SCROLL_RED[i+bluetoothOutput] | SCROLL_BLUE[i+bluetoothOutput];			
			displayOutput_PortA = ~temp;
			
			i++;			
		}else{
			i = 0;
    21ce:	10 92 23 07 	sts	0x0723, r1	; 0x800723 <__data_end+0x1>
    21d2:	10 92 22 07 	sts	0x0722, r1	; 0x800722 <__data_end>
		}
		
				
		break;
    21d6:	31 c1       	rjmp	.+610    	; 0x243a <Tick_display+0x618>
		
		case displayChar:	
		pos = 0;
    21d8:	10 92 36 07 	sts	0x0736, r1	; 0x800736 <pos.2193>
					
		if (bluetoothOutput >= 115)
    21dc:	80 91 24 07 	lds	r24, 0x0724	; 0x800724 <bluetoothOutput>
    21e0:	83 37       	cpi	r24, 0x73	; 115
    21e2:	30 f0       	brcs	.+12     	; 0x21f0 <Tick_display+0x3ce>
		{
			GameEnd = 0x01;
    21e4:	81 e0       	ldi	r24, 0x01	; 1
    21e6:	80 93 29 07 	sts	0x0729, r24	; 0x800729 <GameEnd>
			GameFinised = 0x01;
    21ea:	81 e0       	ldi	r24, 0x01	; 1
    21ec:	80 93 28 07 	sts	0x0728, r24	; 0x800728 <GameFinised>
		}
								
		if (bluetoothOutput_y == 1 && i == 1)
    21f0:	80 91 25 07 	lds	r24, 0x0725	; 0x800725 <bluetoothOutput_y>
    21f4:	81 30       	cpi	r24, 0x01	; 1
    21f6:	61 f4       	brne	.+24     	; 0x2210 <Tick_display+0x3ee>
    21f8:	80 91 22 07 	lds	r24, 0x0722	; 0x800722 <__data_end>
    21fc:	90 91 23 07 	lds	r25, 0x0723	; 0x800723 <__data_end+0x1>
    2200:	01 97       	sbiw	r24, 0x01	; 1
    2202:	31 f4       	brne	.+12     	; 0x2210 <Tick_display+0x3ee>
		{
			num = 2;
    2204:	82 e0       	ldi	r24, 0x02	; 2
    2206:	89 83       	std	Y+1, r24	; 0x01
			pos = 0b00000100;
    2208:	84 e0       	ldi	r24, 0x04	; 4
    220a:	80 93 36 07 	sts	0x0736, r24	; 0x800736 <pos.2193>
    220e:	60 c0       	rjmp	.+192    	; 0x22d0 <Tick_display+0x4ae>
		}else if (bluetoothOutput_y == 2 && i == 1)
    2210:	80 91 25 07 	lds	r24, 0x0725	; 0x800725 <bluetoothOutput_y>
    2214:	82 30       	cpi	r24, 0x02	; 2
    2216:	61 f4       	brne	.+24     	; 0x2230 <Tick_display+0x40e>
    2218:	80 91 22 07 	lds	r24, 0x0722	; 0x800722 <__data_end>
    221c:	90 91 23 07 	lds	r25, 0x0723	; 0x800723 <__data_end+0x1>
    2220:	01 97       	sbiw	r24, 0x01	; 1
    2222:	31 f4       	brne	.+12     	; 0x2230 <Tick_display+0x40e>
		{
			num = 3;
    2224:	83 e0       	ldi	r24, 0x03	; 3
    2226:	89 83       	std	Y+1, r24	; 0x01
			pos = 0b00001000;
    2228:	88 e0       	ldi	r24, 0x08	; 8
    222a:	80 93 36 07 	sts	0x0736, r24	; 0x800736 <pos.2193>
    222e:	50 c0       	rjmp	.+160    	; 0x22d0 <Tick_display+0x4ae>
		}else if (bluetoothOutput_y == 3 && i == 1)
    2230:	80 91 25 07 	lds	r24, 0x0725	; 0x800725 <bluetoothOutput_y>
    2234:	83 30       	cpi	r24, 0x03	; 3
    2236:	61 f4       	brne	.+24     	; 0x2250 <Tick_display+0x42e>
    2238:	80 91 22 07 	lds	r24, 0x0722	; 0x800722 <__data_end>
    223c:	90 91 23 07 	lds	r25, 0x0723	; 0x800723 <__data_end+0x1>
    2240:	01 97       	sbiw	r24, 0x01	; 1
    2242:	31 f4       	brne	.+12     	; 0x2250 <Tick_display+0x42e>
		{
			num = 4;
    2244:	84 e0       	ldi	r24, 0x04	; 4
    2246:	89 83       	std	Y+1, r24	; 0x01
			pos = 0b00010000;
    2248:	80 e1       	ldi	r24, 0x10	; 16
    224a:	80 93 36 07 	sts	0x0736, r24	; 0x800736 <pos.2193>
    224e:	40 c0       	rjmp	.+128    	; 0x22d0 <Tick_display+0x4ae>
		}else if (bluetoothOutput_y == 4 && i == 1)
    2250:	80 91 25 07 	lds	r24, 0x0725	; 0x800725 <bluetoothOutput_y>
    2254:	84 30       	cpi	r24, 0x04	; 4
    2256:	61 f4       	brne	.+24     	; 0x2270 <Tick_display+0x44e>
    2258:	80 91 22 07 	lds	r24, 0x0722	; 0x800722 <__data_end>
    225c:	90 91 23 07 	lds	r25, 0x0723	; 0x800723 <__data_end+0x1>
    2260:	01 97       	sbiw	r24, 0x01	; 1
    2262:	31 f4       	brne	.+12     	; 0x2270 <Tick_display+0x44e>
		{
			num = 5;
    2264:	85 e0       	ldi	r24, 0x05	; 5
    2266:	89 83       	std	Y+1, r24	; 0x01
			pos = 0b00100000;
    2268:	80 e2       	ldi	r24, 0x20	; 32
    226a:	80 93 36 07 	sts	0x0736, r24	; 0x800736 <pos.2193>
    226e:	30 c0       	rjmp	.+96     	; 0x22d0 <Tick_display+0x4ae>
		}else if (bluetoothOutput_y == 5 && i == 1)
    2270:	80 91 25 07 	lds	r24, 0x0725	; 0x800725 <bluetoothOutput_y>
    2274:	85 30       	cpi	r24, 0x05	; 5
    2276:	61 f4       	brne	.+24     	; 0x2290 <Tick_display+0x46e>
    2278:	80 91 22 07 	lds	r24, 0x0722	; 0x800722 <__data_end>
    227c:	90 91 23 07 	lds	r25, 0x0723	; 0x800723 <__data_end+0x1>
    2280:	01 97       	sbiw	r24, 0x01	; 1
    2282:	31 f4       	brne	.+12     	; 0x2290 <Tick_display+0x46e>
		{
			num = 6;
    2284:	86 e0       	ldi	r24, 0x06	; 6
    2286:	89 83       	std	Y+1, r24	; 0x01
			pos = 0b01000000;
    2288:	80 e4       	ldi	r24, 0x40	; 64
    228a:	80 93 36 07 	sts	0x0736, r24	; 0x800736 <pos.2193>
    228e:	20 c0       	rjmp	.+64     	; 0x22d0 <Tick_display+0x4ae>
		}else if (bluetoothOutput_y == 6 && i == 1)
    2290:	80 91 25 07 	lds	r24, 0x0725	; 0x800725 <bluetoothOutput_y>
    2294:	86 30       	cpi	r24, 0x06	; 6
    2296:	61 f4       	brne	.+24     	; 0x22b0 <Tick_display+0x48e>
    2298:	80 91 22 07 	lds	r24, 0x0722	; 0x800722 <__data_end>
    229c:	90 91 23 07 	lds	r25, 0x0723	; 0x800723 <__data_end+0x1>
    22a0:	01 97       	sbiw	r24, 0x01	; 1
    22a2:	31 f4       	brne	.+12     	; 0x22b0 <Tick_display+0x48e>
		{
			num = 7;
    22a4:	87 e0       	ldi	r24, 0x07	; 7
    22a6:	89 83       	std	Y+1, r24	; 0x01
			pos = 0b10000000;
    22a8:	80 e8       	ldi	r24, 0x80	; 128
    22aa:	80 93 36 07 	sts	0x0736, r24	; 0x800736 <pos.2193>
    22ae:	10 c0       	rjmp	.+32     	; 0x22d0 <Tick_display+0x4ae>
		}
		else if(i == 1){
    22b0:	80 91 22 07 	lds	r24, 0x0722	; 0x800722 <__data_end>
    22b4:	90 91 23 07 	lds	r25, 0x0723	; 0x800723 <__data_end+0x1>
    22b8:	01 97       	sbiw	r24, 0x01	; 1
    22ba:	31 f4       	brne	.+12     	; 0x22c8 <Tick_display+0x4a6>
			num = 1;
    22bc:	81 e0       	ldi	r24, 0x01	; 1
    22be:	89 83       	std	Y+1, r24	; 0x01
			pos = 0b00000010;
    22c0:	82 e0       	ldi	r24, 0x02	; 2
    22c2:	80 93 36 07 	sts	0x0736, r24	; 0x800736 <pos.2193>
    22c6:	04 c0       	rjmp	.+8      	; 0x22d0 <Tick_display+0x4ae>
		}else{
			num = 1;
    22c8:	81 e0       	ldi	r24, 0x01	; 1
    22ca:	89 83       	std	Y+1, r24	; 0x01
			pos = 0b00000000;
    22cc:	10 92 36 07 	sts	0x0736, r1	; 0x800736 <pos.2193>
		}		
		
		if (GetBit(temp, num) && i == 1)
    22d0:	80 91 35 07 	lds	r24, 0x0735	; 0x800735 <temp.2192>
    22d4:	69 81       	ldd	r22, Y+1	; 0x01
    22d6:	f9 dc       	rcall	.-1550   	; 0x1cca <GetBit>
    22d8:	88 23       	and	r24, r24
    22da:	09 f4       	brne	.+2      	; 0x22de <Tick_display+0x4bc>
    22dc:	42 c0       	rjmp	.+132    	; 0x2362 <Tick_display+0x540>
    22de:	80 91 22 07 	lds	r24, 0x0722	; 0x800722 <__data_end>
    22e2:	90 91 23 07 	lds	r25, 0x0723	; 0x800723 <__data_end+0x1>
    22e6:	01 97       	sbiw	r24, 0x01	; 1
    22e8:	e1 f5       	brne	.+120    	; 0x2362 <Tick_display+0x540>
		{
			--bluetoothOutput;
    22ea:	80 91 24 07 	lds	r24, 0x0724	; 0x800724 <bluetoothOutput>
    22ee:	81 50       	subi	r24, 0x01	; 1
    22f0:	80 93 24 07 	sts	0x0724, r24	; 0x800724 <bluetoothOutput>
			temp = SCROLL[i+bluetoothOutput] | SCROLL_RED[i+bluetoothOutput] | SCROLL_BLUE[i+bluetoothOutput];
    22f4:	80 91 24 07 	lds	r24, 0x0724	; 0x800724 <bluetoothOutput>
    22f8:	28 2f       	mov	r18, r24
    22fa:	30 e0       	ldi	r19, 0x00	; 0
    22fc:	80 91 22 07 	lds	r24, 0x0722	; 0x800722 <__data_end>
    2300:	90 91 23 07 	lds	r25, 0x0723	; 0x800723 <__data_end+0x1>
    2304:	82 0f       	add	r24, r18
    2306:	93 1f       	adc	r25, r19
    2308:	9e 01       	movw	r18, r28
    230a:	2d 57       	subi	r18, 0x7D	; 125
    230c:	3f 4f       	sbci	r19, 0xFF	; 255
    230e:	82 0f       	add	r24, r18
    2310:	93 1f       	adc	r25, r19
    2312:	fc 01       	movw	r30, r24
    2314:	40 81       	ld	r20, Z
    2316:	80 91 24 07 	lds	r24, 0x0724	; 0x800724 <bluetoothOutput>
    231a:	28 2f       	mov	r18, r24
    231c:	30 e0       	ldi	r19, 0x00	; 0
    231e:	80 91 22 07 	lds	r24, 0x0722	; 0x800722 <__data_end>
    2322:	90 91 23 07 	lds	r25, 0x0723	; 0x800723 <__data_end+0x1>
    2326:	82 0f       	add	r24, r18
    2328:	93 1f       	adc	r25, r19
    232a:	9e 01       	movw	r18, r28
    232c:	25 5f       	subi	r18, 0xF5	; 245
    232e:	3f 4f       	sbci	r19, 0xFF	; 255
    2330:	82 0f       	add	r24, r18
    2332:	93 1f       	adc	r25, r19
    2334:	fc 01       	movw	r30, r24
    2336:	80 81       	ld	r24, Z
    2338:	48 2b       	or	r20, r24
    233a:	80 91 24 07 	lds	r24, 0x0724	; 0x800724 <bluetoothOutput>
    233e:	28 2f       	mov	r18, r24
    2340:	30 e0       	ldi	r19, 0x00	; 0
    2342:	80 91 22 07 	lds	r24, 0x0722	; 0x800722 <__data_end>
    2346:	90 91 23 07 	lds	r25, 0x0723	; 0x800723 <__data_end+0x1>
    234a:	82 0f       	add	r24, r18
    234c:	93 1f       	adc	r25, r19
    234e:	9e 01       	movw	r18, r28
    2350:	25 50       	subi	r18, 0x05	; 5
    2352:	3f 4f       	sbci	r19, 0xFF	; 255
    2354:	82 0f       	add	r24, r18
    2356:	93 1f       	adc	r25, r19
    2358:	fc 01       	movw	r30, r24
    235a:	80 81       	ld	r24, Z
    235c:	84 2b       	or	r24, r20
    235e:	80 93 35 07 	sts	0x0735, r24	; 0x800735 <temp.2192>
		}
		
		
		displayOutput_PortA =  ~(pos | temp);	
    2362:	90 91 36 07 	lds	r25, 0x0736	; 0x800736 <pos.2193>
    2366:	80 91 35 07 	lds	r24, 0x0735	; 0x800735 <temp.2192>
    236a:	89 2b       	or	r24, r25
    236c:	80 95       	com	r24
    236e:	80 93 7d 07 	sts	0x077D, r24	; 0x80077d <displayOutput_PortA>
		break;
    2372:	63 c0       	rjmp	.+198    	; 0x243a <Tick_display+0x618>
		
		
		
		case check:
		if(i == 1){
    2374:	80 91 22 07 	lds	r24, 0x0722	; 0x800722 <__data_end>
    2378:	90 91 23 07 	lds	r25, 0x0723	; 0x800723 <__data_end+0x1>
    237c:	01 97       	sbiw	r24, 0x01	; 1
    237e:	69 f4       	brne	.+26     	; 0x239a <Tick_display+0x578>
			if(!GetBit(temp, 0) && pos == 0b00000010){
    2380:	80 91 35 07 	lds	r24, 0x0735	; 0x800735 <temp.2192>
    2384:	60 e0       	ldi	r22, 0x00	; 0
    2386:	a1 dc       	rcall	.-1726   	; 0x1cca <GetBit>
    2388:	88 23       	and	r24, r24
    238a:	39 f4       	brne	.+14     	; 0x239a <Tick_display+0x578>
    238c:	80 91 36 07 	lds	r24, 0x0736	; 0x800736 <pos.2193>
    2390:	82 30       	cpi	r24, 0x02	; 2
    2392:	19 f4       	brne	.+6      	; 0x239a <Tick_display+0x578>
				GameEnd = 0x01;
    2394:	81 e0       	ldi	r24, 0x01	; 1
    2396:	80 93 29 07 	sts	0x0729, r24	; 0x800729 <GameEnd>
			}
		}
		
		if (i == 1)
    239a:	80 91 22 07 	lds	r24, 0x0722	; 0x800722 <__data_end>
    239e:	90 91 23 07 	lds	r25, 0x0723	; 0x800723 <__data_end+0x1>
    23a2:	01 97       	sbiw	r24, 0x01	; 1
    23a4:	09 f0       	breq	.+2      	; 0x23a8 <Tick_display+0x586>
    23a6:	48 c0       	rjmp	.+144    	; 0x2438 <Tick_display+0x616>
		{
			char underneath = SCROLL[i+bluetoothOutput-1] | SCROLL_RED[i+bluetoothOutput-1] | SCROLL_BLUE[i+bluetoothOutput-1];
    23a8:	80 91 24 07 	lds	r24, 0x0724	; 0x800724 <bluetoothOutput>
    23ac:	28 2f       	mov	r18, r24
    23ae:	30 e0       	ldi	r19, 0x00	; 0
    23b0:	80 91 22 07 	lds	r24, 0x0722	; 0x800722 <__data_end>
    23b4:	90 91 23 07 	lds	r25, 0x0723	; 0x800723 <__data_end+0x1>
    23b8:	82 0f       	add	r24, r18
    23ba:	93 1f       	adc	r25, r19
    23bc:	01 97       	sbiw	r24, 0x01	; 1
    23be:	9e 01       	movw	r18, r28
    23c0:	2d 57       	subi	r18, 0x7D	; 125
    23c2:	3f 4f       	sbci	r19, 0xFF	; 255
    23c4:	82 0f       	add	r24, r18
    23c6:	93 1f       	adc	r25, r19
    23c8:	fc 01       	movw	r30, r24
    23ca:	40 81       	ld	r20, Z
    23cc:	80 91 24 07 	lds	r24, 0x0724	; 0x800724 <bluetoothOutput>
    23d0:	28 2f       	mov	r18, r24
    23d2:	30 e0       	ldi	r19, 0x00	; 0
    23d4:	80 91 22 07 	lds	r24, 0x0722	; 0x800722 <__data_end>
    23d8:	90 91 23 07 	lds	r25, 0x0723	; 0x800723 <__data_end+0x1>
    23dc:	82 0f       	add	r24, r18
    23de:	93 1f       	adc	r25, r19
    23e0:	01 97       	sbiw	r24, 0x01	; 1
    23e2:	9e 01       	movw	r18, r28
    23e4:	25 5f       	subi	r18, 0xF5	; 245
    23e6:	3f 4f       	sbci	r19, 0xFF	; 255
    23e8:	82 0f       	add	r24, r18
    23ea:	93 1f       	adc	r25, r19
    23ec:	fc 01       	movw	r30, r24
    23ee:	80 81       	ld	r24, Z
    23f0:	48 2b       	or	r20, r24
    23f2:	80 91 24 07 	lds	r24, 0x0724	; 0x800724 <bluetoothOutput>
    23f6:	28 2f       	mov	r18, r24
    23f8:	30 e0       	ldi	r19, 0x00	; 0
    23fa:	80 91 22 07 	lds	r24, 0x0722	; 0x800722 <__data_end>
    23fe:	90 91 23 07 	lds	r25, 0x0723	; 0x800723 <__data_end+0x1>
    2402:	82 0f       	add	r24, r18
    2404:	93 1f       	adc	r25, r19
    2406:	01 97       	sbiw	r24, 0x01	; 1
    2408:	9e 01       	movw	r18, r28
    240a:	25 50       	subi	r18, 0x05	; 5
    240c:	3f 4f       	sbci	r19, 0xFF	; 255
    240e:	82 0f       	add	r24, r18
    2410:	93 1f       	adc	r25, r19
    2412:	fc 01       	movw	r30, r24
    2414:	80 81       	ld	r24, Z
    2416:	84 2b       	or	r24, r20
    2418:	8a 83       	std	Y+2, r24	; 0x02
			
			if (!GetBit(underneath, num - 1))
    241a:	89 81       	ldd	r24, Y+1	; 0x01
    241c:	81 50       	subi	r24, 0x01	; 1
    241e:	68 2f       	mov	r22, r24
    2420:	8a 81       	ldd	r24, Y+2	; 0x02
    2422:	53 dc       	rcall	.-1882   	; 0x1cca <GetBit>
    2424:	88 23       	and	r24, r24
    2426:	41 f4       	brne	.+16     	; 0x2438 <Tick_display+0x616>
			{
				bluetoothOutput_y--;
    2428:	80 91 25 07 	lds	r24, 0x0725	; 0x800725 <bluetoothOutput_y>
    242c:	81 50       	subi	r24, 0x01	; 1
    242e:	80 93 25 07 	sts	0x0725, r24	; 0x800725 <bluetoothOutput_y>
			}
		}		
		break;
    2432:	02 c0       	rjmp	.+4      	; 0x2438 <Tick_display+0x616>
		break;
	}
	
	switch(state){
		case start:
		break;
    2434:	00 00       	nop
    2436:	01 c0       	rjmp	.+2      	; 0x243a <Tick_display+0x618>
			if (!GetBit(underneath, num - 1))
			{
				bluetoothOutput_y--;
			}
		}		
		break;
    2438:	00 00       	nop
			
	}
	
	
	
	return state;
    243a:	ce 01       	movw	r24, r28
    243c:	8d 58       	subi	r24, 0x8D	; 141
    243e:	9e 4f       	sbci	r25, 0xFE	; 254
    2440:	fc 01       	movw	r30, r24
    2442:	80 81       	ld	r24, Z
    2444:	91 81       	ldd	r25, Z+1	; 0x01
}
    2446:	cc 58       	subi	r28, 0x8C	; 140
    2448:	de 4f       	sbci	r29, 0xFE	; 254
    244a:	0f b6       	in	r0, 0x3f	; 63
    244c:	f8 94       	cli
    244e:	de bf       	out	0x3e, r29	; 62
    2450:	0f be       	out	0x3f, r0	; 63
    2452:	cd bf       	out	0x3d, r28	; 61
    2454:	df 91       	pop	r29
    2456:	cf 91       	pop	r28
    2458:	08 95       	ret

0000245a <Tick_output>:

enum output{O_start};
int Tick_output(int state){
    245a:	cf 93       	push	r28
    245c:	df 93       	push	r29
    245e:	00 d0       	rcall	.+0      	; 0x2460 <Tick_output+0x6>
    2460:	cd b7       	in	r28, 0x3d	; 61
    2462:	de b7       	in	r29, 0x3e	; 62
    2464:	9a 83       	std	Y+2, r25	; 0x02
    2466:	89 83       	std	Y+1, r24	; 0x01
	switch(state){
    2468:	89 81       	ldd	r24, Y+1	; 0x01
    246a:	9a 81       	ldd	r25, Y+2	; 0x02
    246c:	89 2b       	or	r24, r25
    246e:	89 f4       	brne	.+34     	; 0x2492 <Tick_output+0x38>
		case O_start:
		if (GameStart == 0x01)
    2470:	80 91 27 07 	lds	r24, 0x0727	; 0x800727 <GameStart>
    2474:	81 30       	cpi	r24, 0x01	; 1
    2476:	61 f4       	brne	.+24     	; 0x2490 <Tick_output+0x36>
		{
			PORTC = displayOutput_PortC;
    2478:	88 e2       	ldi	r24, 0x28	; 40
    247a:	90 e0       	ldi	r25, 0x00	; 0
    247c:	20 91 7e 07 	lds	r18, 0x077E	; 0x80077e <displayOutput_PortC>
    2480:	fc 01       	movw	r30, r24
    2482:	20 83       	st	Z, r18
			PORTA = displayOutput_PortA;
    2484:	82 e2       	ldi	r24, 0x22	; 34
    2486:	90 e0       	ldi	r25, 0x00	; 0
    2488:	20 91 7d 07 	lds	r18, 0x077D	; 0x80077d <displayOutput_PortA>
    248c:	fc 01       	movw	r30, r24
    248e:	20 83       	st	Z, r18
		}
		
		break;	
    2490:	00 00       	nop
	}
	return state;
    2492:	89 81       	ldd	r24, Y+1	; 0x01
    2494:	9a 81       	ldd	r25, Y+2	; 0x02
}
    2496:	0f 90       	pop	r0
    2498:	0f 90       	pop	r0
    249a:	df 91       	pop	r29
    249c:	cf 91       	pop	r28
    249e:	08 95       	ret

000024a0 <Tick_displayLCD>:

enum display_LCD{dis_init, print_once, wait, print_score, print_end};
int Tick_displayLCD(int state){
    24a0:	cf 93       	push	r28
    24a2:	df 93       	push	r29
    24a4:	00 d0       	rcall	.+0      	; 0x24a6 <Tick_displayLCD+0x6>
    24a6:	1f 92       	push	r1
    24a8:	cd b7       	in	r28, 0x3d	; 61
    24aa:	de b7       	in	r29, 0x3e	; 62
    24ac:	9b 83       	std	Y+3, r25	; 0x03
    24ae:	8a 83       	std	Y+2, r24	; 0x02
	static char scoreTemp = 48;
	
	switch(state){
    24b0:	8a 81       	ldd	r24, Y+2	; 0x02
    24b2:	9b 81       	ldd	r25, Y+3	; 0x03
    24b4:	81 30       	cpi	r24, 0x01	; 1
    24b6:	91 05       	cpc	r25, r1
    24b8:	c1 f0       	breq	.+48     	; 0x24ea <Tick_displayLCD+0x4a>
    24ba:	82 30       	cpi	r24, 0x02	; 2
    24bc:	91 05       	cpc	r25, r1
    24be:	1c f4       	brge	.+6      	; 0x24c6 <Tick_displayLCD+0x26>
    24c0:	89 2b       	or	r24, r25
    24c2:	39 f0       	breq	.+14     	; 0x24d2 <Tick_displayLCD+0x32>
    24c4:	3a c0       	rjmp	.+116    	; 0x253a <Tick_displayLCD+0x9a>
    24c6:	82 30       	cpi	r24, 0x02	; 2
    24c8:	91 05       	cpc	r25, r1
    24ca:	d9 f0       	breq	.+54     	; 0x2502 <Tick_displayLCD+0x62>
    24cc:	03 97       	sbiw	r24, 0x03	; 3
    24ce:	71 f1       	breq	.+92     	; 0x252c <Tick_displayLCD+0x8c>
    24d0:	34 c0       	rjmp	.+104    	; 0x253a <Tick_displayLCD+0x9a>
		case dis_init:
		if (GameStart == 0x01)
    24d2:	80 91 27 07 	lds	r24, 0x0727	; 0x800727 <GameStart>
    24d6:	81 30       	cpi	r24, 0x01	; 1
    24d8:	29 f4       	brne	.+10     	; 0x24e4 <Tick_displayLCD+0x44>
		{
			state = print_once;
    24da:	81 e0       	ldi	r24, 0x01	; 1
    24dc:	90 e0       	ldi	r25, 0x00	; 0
    24de:	9b 83       	std	Y+3, r25	; 0x03
    24e0:	8a 83       	std	Y+2, r24	; 0x02
		}else{
			state = dis_init;
		}
		break;
    24e2:	2e c0       	rjmp	.+92     	; 0x2540 <Tick_displayLCD+0xa0>
		case dis_init:
		if (GameStart == 0x01)
		{
			state = print_once;
		}else{
			state = dis_init;
    24e4:	1b 82       	std	Y+3, r1	; 0x03
    24e6:	1a 82       	std	Y+2, r1	; 0x02
		}
		break;
    24e8:	2b c0       	rjmp	.+86     	; 0x2540 <Tick_displayLCD+0xa0>
		
		case print_once:
		if(GameStart == 00){
    24ea:	80 91 27 07 	lds	r24, 0x0727	; 0x800727 <GameStart>
    24ee:	88 23       	and	r24, r24
    24f0:	19 f4       	brne	.+6      	; 0x24f8 <Tick_displayLCD+0x58>
			state = dis_init;
    24f2:	1b 82       	std	Y+3, r1	; 0x03
    24f4:	1a 82       	std	Y+2, r1	; 0x02
		}else{
			state = wait;
		}		
		break;
    24f6:	24 c0       	rjmp	.+72     	; 0x2540 <Tick_displayLCD+0xa0>
		
		case print_once:
		if(GameStart == 00){
			state = dis_init;
		}else{
			state = wait;
    24f8:	82 e0       	ldi	r24, 0x02	; 2
    24fa:	90 e0       	ldi	r25, 0x00	; 0
    24fc:	9b 83       	std	Y+3, r25	; 0x03
    24fe:	8a 83       	std	Y+2, r24	; 0x02
		}		
		break;
    2500:	1f c0       	rjmp	.+62     	; 0x2540 <Tick_displayLCD+0xa0>
		
		case wait:
		if (GameEnd == 0x01)
    2502:	80 91 29 07 	lds	r24, 0x0729	; 0x800729 <GameEnd>
    2506:	81 30       	cpi	r24, 0x01	; 1
    2508:	29 f4       	brne	.+10     	; 0x2514 <Tick_displayLCD+0x74>
		{
			state = print_score;
    250a:	83 e0       	ldi	r24, 0x03	; 3
    250c:	90 e0       	ldi	r25, 0x00	; 0
    250e:	9b 83       	std	Y+3, r25	; 0x03
    2510:	8a 83       	std	Y+2, r24	; 0x02
		}else if(GameStart == 00){
			state = dis_init;
		}else{
			state = wait;
		}		
		break;
    2512:	16 c0       	rjmp	.+44     	; 0x2540 <Tick_displayLCD+0xa0>
		
		case wait:
		if (GameEnd == 0x01)
		{
			state = print_score;
		}else if(GameStart == 00){
    2514:	80 91 27 07 	lds	r24, 0x0727	; 0x800727 <GameStart>
    2518:	88 23       	and	r24, r24
    251a:	19 f4       	brne	.+6      	; 0x2522 <Tick_displayLCD+0x82>
			state = dis_init;
    251c:	1b 82       	std	Y+3, r1	; 0x03
    251e:	1a 82       	std	Y+2, r1	; 0x02
		}else{
			state = wait;
		}		
		break;
    2520:	0f c0       	rjmp	.+30     	; 0x2540 <Tick_displayLCD+0xa0>
		{
			state = print_score;
		}else if(GameStart == 00){
			state = dis_init;
		}else{
			state = wait;
    2522:	82 e0       	ldi	r24, 0x02	; 2
    2524:	90 e0       	ldi	r25, 0x00	; 0
    2526:	9b 83       	std	Y+3, r25	; 0x03
    2528:	8a 83       	std	Y+2, r24	; 0x02
		}		
		break;
    252a:	0a c0       	rjmp	.+20     	; 0x2540 <Tick_displayLCD+0xa0>
		
		case print_score:
		state = wait;
    252c:	82 e0       	ldi	r24, 0x02	; 2
    252e:	90 e0       	ldi	r25, 0x00	; 0
    2530:	9b 83       	std	Y+3, r25	; 0x03
    2532:	8a 83       	std	Y+2, r24	; 0x02
		scorePrint = 0x00;
    2534:	10 92 2a 07 	sts	0x072A, r1	; 0x80072a <scorePrint>
		break;
    2538:	03 c0       	rjmp	.+6      	; 0x2540 <Tick_displayLCD+0xa0>
		
		default:
		state = dis_init;
    253a:	1b 82       	std	Y+3, r1	; 0x03
    253c:	1a 82       	std	Y+2, r1	; 0x02
		break;
    253e:	00 00       	nop
	}
	
	switch(state){
    2540:	8a 81       	ldd	r24, Y+2	; 0x02
    2542:	9b 81       	ldd	r25, Y+3	; 0x03
    2544:	81 30       	cpi	r24, 0x01	; 1
    2546:	91 05       	cpc	r25, r1
    2548:	d9 f0       	breq	.+54     	; 0x2580 <Tick_displayLCD+0xe0>
    254a:	82 30       	cpi	r24, 0x02	; 2
    254c:	91 05       	cpc	r25, r1
    254e:	1c f4       	brge	.+6      	; 0x2556 <Tick_displayLCD+0xb6>
    2550:	89 2b       	or	r24, r25
    2552:	41 f0       	breq	.+16     	; 0x2564 <Tick_displayLCD+0xc4>
    2554:	63 c0       	rjmp	.+198    	; 0x261c <Tick_displayLCD+0x17c>
    2556:	82 30       	cpi	r24, 0x02	; 2
    2558:	91 05       	cpc	r25, r1
    255a:	09 f4       	brne	.+2      	; 0x255e <Tick_displayLCD+0xbe>
    255c:	5e c0       	rjmp	.+188    	; 0x261a <Tick_displayLCD+0x17a>
    255e:	03 97       	sbiw	r24, 0x03	; 3
    2560:	e9 f0       	breq	.+58     	; 0x259c <Tick_displayLCD+0xfc>
    2562:	5c c0       	rjmp	.+184    	; 0x261c <Tick_displayLCD+0x17c>
		case dis_init:
		LCD_Clear();
    2564:	ef d8       	rcall	.-3618   	; 0x1744 <LCD_Clear>
		LCD_Commands(0x01);	
    2566:	81 e0       	ldi	r24, 0x01	; 1
    2568:	0e 94 e7 00 	call	0x1ce	; 0x1ce <LCD_Commands>
		LCD_String("Press Start to");
    256c:	8d ef       	ldi	r24, 0xFD	; 253
    256e:	91 e0       	ldi	r25, 0x01	; 1
    2570:	be d8       	rcall	.-3716   	; 0x16ee <LCD_String>
		LCD_Commands(0xC0);	
    2572:	80 ec       	ldi	r24, 0xC0	; 192
    2574:	0e 94 e7 00 	call	0x1ce	; 0x1ce <LCD_Commands>
		LCD_String("Play");
    2578:	8c e0       	ldi	r24, 0x0C	; 12
    257a:	92 e0       	ldi	r25, 0x02	; 2
		break;
    257c:	b8 d8       	rcall	.-3728   	; 0x16ee <LCD_String>
		
		case print_once:
		LCD_Clear();
    257e:	4e c0       	rjmp	.+156    	; 0x261c <Tick_displayLCD+0x17c>
    2580:	e1 d8       	rcall	.-3646   	; 0x1744 <LCD_Clear>
		LCD_Commands(0x01);	
    2582:	81 e0       	ldi	r24, 0x01	; 1
    2584:	0e 94 e7 00 	call	0x1ce	; 0x1ce <LCD_Commands>
		LCD_String("WELCOME TO");
    2588:	81 e1       	ldi	r24, 0x11	; 17
    258a:	92 e0       	ldi	r25, 0x02	; 2
    258c:	b0 d8       	rcall	.-3744   	; 0x16ee <LCD_String>
		LCD_Commands(0xC0);
    258e:	80 ec       	ldi	r24, 0xC0	; 192
    2590:	0e 94 e7 00 	call	0x1ce	; 0x1ce <LCD_Commands>
		LCD_String("Mario_Run");	
    2594:	8c e1       	ldi	r24, 0x1C	; 28
    2596:	92 e0       	ldi	r25, 0x02	; 2
    2598:	aa d8       	rcall	.-3756   	; 0x16ee <LCD_String>
		break;
    259a:	40 c0       	rjmp	.+128    	; 0x261c <Tick_displayLCD+0x17c>
		
		case wait:
		break;
		
		case print_score:
		LCD_Clear();
    259c:	d3 d8       	rcall	.-3674   	; 0x1744 <LCD_Clear>
    259e:	81 e0       	ldi	r24, 0x01	; 1
		LCD_Commands(0x01);
    25a0:	0e 94 e7 00 	call	0x1ce	; 0x1ce <LCD_Commands>
		
		if (GameFinised == 0x01)
    25a4:	80 91 28 07 	lds	r24, 0x0728	; 0x800728 <GameFinised>
    25a8:	81 30       	cpi	r24, 0x01	; 1
		{
			LCD_String("Game Finished");
    25aa:	21 f4       	brne	.+8      	; 0x25b4 <Tick_displayLCD+0x114>
    25ac:	86 e2       	ldi	r24, 0x26	; 38
    25ae:	92 e0       	ldi	r25, 0x02	; 2
    25b0:	9e d8       	rcall	.-3780   	; 0x16ee <LCD_String>
    25b2:	03 c0       	rjmp	.+6      	; 0x25ba <Tick_displayLCD+0x11a>
		}else{
			LCD_String("Game Over");
    25b4:	84 e3       	ldi	r24, 0x34	; 52
    25b6:	92 e0       	ldi	r25, 0x02	; 2
    25b8:	9a d8       	rcall	.-3788   	; 0x16ee <LCD_String>
    25ba:	80 91 29 07 	lds	r24, 0x0729	; 0x800729 <GameEnd>
		}
		
		if (GameEnd == 0x01)
    25be:	81 30       	cpi	r24, 0x01	; 1
    25c0:	31 f5       	brne	.+76     	; 0x260e <Tick_displayLCD+0x16e>
		{			
			LCD_Commands(0xC0);
    25c2:	80 ec       	ldi	r24, 0xC0	; 192
    25c4:	0e 94 e7 00 	call	0x1ce	; 0x1ce <LCD_Commands>
			LCD_String("You Lasted:");
    25c8:	8e e3       	ldi	r24, 0x3E	; 62
    25ca:	92 e0       	ldi	r25, 0x02	; 2
    25cc:	90 d8       	rcall	.-3808   	; 0x16ee <LCD_String>
			unsigned char scor = 0;
    25ce:	19 82       	std	Y+1, r1	; 0x01
			
			eeprom_read_byte(scor);
			
			if (scor == 5)
    25d0:	89 81       	ldd	r24, Y+1	; 0x01
    25d2:	85 30       	cpi	r24, 0x05	; 5
			{
				LCD_String("5");
    25d4:	21 f4       	brne	.+8      	; 0x25de <Tick_displayLCD+0x13e>
    25d6:	8a e4       	ldi	r24, 0x4A	; 74
    25d8:	92 e0       	ldi	r25, 0x02	; 2
    25da:	89 d8       	rcall	.-3822   	; 0x16ee <LCD_String>
    25dc:	18 c0       	rjmp	.+48     	; 0x260e <Tick_displayLCD+0x16e>
				
			}else if (scor == 10)
    25de:	89 81       	ldd	r24, Y+1	; 0x01
    25e0:	8a 30       	cpi	r24, 0x0A	; 10
			{
				LCD_String("10");
    25e2:	21 f4       	brne	.+8      	; 0x25ec <Tick_displayLCD+0x14c>
    25e4:	8c e4       	ldi	r24, 0x4C	; 76
    25e6:	92 e0       	ldi	r25, 0x02	; 2
    25e8:	82 d8       	rcall	.-3836   	; 0x16ee <LCD_String>
    25ea:	11 c0       	rjmp	.+34     	; 0x260e <Tick_displayLCD+0x16e>
			}else if (scor == 20)
    25ec:	89 81       	ldd	r24, Y+1	; 0x01
    25ee:	84 31       	cpi	r24, 0x14	; 20
			{
				LCD_String("20");
    25f0:	21 f4       	brne	.+8      	; 0x25fa <Tick_displayLCD+0x15a>
    25f2:	8f e4       	ldi	r24, 0x4F	; 79
    25f4:	92 e0       	ldi	r25, 0x02	; 2
    25f6:	7b d8       	rcall	.-3850   	; 0x16ee <LCD_String>
			}else if (scor == 30)
    25f8:	0a c0       	rjmp	.+20     	; 0x260e <Tick_displayLCD+0x16e>
    25fa:	89 81       	ldd	r24, Y+1	; 0x01
    25fc:	8e 31       	cpi	r24, 0x1E	; 30
			{
				LCD_String("30");
    25fe:	21 f4       	brne	.+8      	; 0x2608 <Tick_displayLCD+0x168>
    2600:	82 e5       	ldi	r24, 0x52	; 82
    2602:	92 e0       	ldi	r25, 0x02	; 2
    2604:	74 d8       	rcall	.-3864   	; 0x16ee <LCD_String>
    2606:	03 c0       	rjmp	.+6      	; 0x260e <Tick_displayLCD+0x16e>
			}	
			else{
				LCD_String("30+");
    2608:	85 e5       	ldi	r24, 0x55	; 85
    260a:	92 e0       	ldi	r25, 0x02	; 2
    260c:	70 d8       	rcall	.-3872   	; 0x16ee <LCD_String>
    260e:	80 91 04 01 	lds	r24, 0x0104	; 0x800104 <scoreTemp.2224>
			}
		}
		
		
		scoreTemp++;
    2612:	8f 5f       	subi	r24, 0xFF	; 255
    2614:	80 93 04 01 	sts	0x0104, r24	; 0x800104 <scoreTemp.2224>
    2618:	01 c0       	rjmp	.+2      	; 0x261c <Tick_displayLCD+0x17c>
		
		break;
    261a:	00 00       	nop
		LCD_Commands(0xC0);
		LCD_String("Mario_Run");	
		break;
		
		case wait:
		break;
    261c:	8a 81       	ldd	r24, Y+2	; 0x02
		
		
		
	}
	
	return state;
    261e:	9b 81       	ldd	r25, Y+3	; 0x03
    2620:	0f 90       	pop	r0
}
    2622:	0f 90       	pop	r0
    2624:	0f 90       	pop	r0
    2626:	df 91       	pop	r29
    2628:	cf 91       	pop	r28
    262a:	08 95       	ret

0000262c <Tick_song>:
    262c:	ef 92       	push	r14

enum song{songStart, songPlay};
int Tick_song(int state){
    262e:	ff 92       	push	r15
    2630:	0f 93       	push	r16
    2632:	1f 93       	push	r17
    2634:	cf 93       	push	r28
    2636:	df 93       	push	r29
    2638:	00 d0       	rcall	.+0      	; 0x263a <Tick_song+0xe>
    263a:	cd b7       	in	r28, 0x3d	; 61
    263c:	de b7       	in	r29, 0x3e	; 62
    263e:	9a 83       	std	Y+2, r25	; 0x02
    2640:	89 83       	std	Y+1, r24	; 0x01
	if( bluetoothOutput < 20){
    2642:	80 91 24 07 	lds	r24, 0x0724	; 0x800724 <bluetoothOutput>
    2646:	84 31       	cpi	r24, 0x14	; 20
    2648:	38 f4       	brcc	.+14     	; 0x2658 <Tick_song+0x2c>
		eeprom_write_byte(timeElap, 5);
    264a:	80 91 2b 07 	lds	r24, 0x072B	; 0x80072b <timeElap>
    264e:	88 2f       	mov	r24, r24
    2650:	90 e0       	ldi	r25, 0x00	; 0
    2652:	65 e0       	ldi	r22, 0x05	; 5
    2654:	d6 d4       	rcall	.+2476   	; 0x3002 <eeprom_write_byte>
    2656:	20 c0       	rjmp	.+64     	; 0x2698 <Tick_song+0x6c>
	}else if( bluetoothOutput < 50){
    2658:	80 91 24 07 	lds	r24, 0x0724	; 0x800724 <bluetoothOutput>
    265c:	82 33       	cpi	r24, 0x32	; 50
    265e:	38 f4       	brcc	.+14     	; 0x266e <Tick_song+0x42>
		eeprom_write_byte(timeElap, 10);	
    2660:	80 91 2b 07 	lds	r24, 0x072B	; 0x80072b <timeElap>
    2664:	88 2f       	mov	r24, r24
    2666:	90 e0       	ldi	r25, 0x00	; 0
    2668:	6a e0       	ldi	r22, 0x0A	; 10
    266a:	cb d4       	rcall	.+2454   	; 0x3002 <eeprom_write_byte>
    266c:	15 c0       	rjmp	.+42     	; 0x2698 <Tick_song+0x6c>
	}else if( bluetoothOutput < 100){
    266e:	80 91 24 07 	lds	r24, 0x0724	; 0x800724 <bluetoothOutput>
    2672:	84 36       	cpi	r24, 0x64	; 100
    2674:	38 f4       	brcc	.+14     	; 0x2684 <Tick_song+0x58>
		eeprom_write_byte(timeElap, 20);
    2676:	80 91 2b 07 	lds	r24, 0x072B	; 0x80072b <timeElap>
    267a:	88 2f       	mov	r24, r24
    267c:	90 e0       	ldi	r25, 0x00	; 0
    267e:	64 e1       	ldi	r22, 0x14	; 20
    2680:	c0 d4       	rcall	.+2432   	; 0x3002 <eeprom_write_byte>
    2682:	0a c0       	rjmp	.+20     	; 0x2698 <Tick_song+0x6c>
	}else if( bluetoothOutput < 150){
    2684:	80 91 24 07 	lds	r24, 0x0724	; 0x800724 <bluetoothOutput>
    2688:	86 39       	cpi	r24, 0x96	; 150
    268a:	30 f4       	brcc	.+12     	; 0x2698 <Tick_song+0x6c>
		eeprom_write_byte(timeElap, 30);
    268c:	80 91 2b 07 	lds	r24, 0x072B	; 0x80072b <timeElap>
    2690:	88 2f       	mov	r24, r24
    2692:	90 e0       	ldi	r25, 0x00	; 0
    2694:	6e e1       	ldi	r22, 0x1E	; 30
    2696:	b5 d4       	rcall	.+2410   	; 0x3002 <eeprom_write_byte>
	static char songCount = 0;
	static long songTime = 0;
	static long songSleep = 0;
	
	
	switch(state){
    2698:	89 81       	ldd	r24, Y+1	; 0x01
    269a:	9a 81       	ldd	r25, Y+2	; 0x02
    269c:	00 97       	sbiw	r24, 0x00	; 0
    269e:	19 f0       	breq	.+6      	; 0x26a6 <Tick_song+0x7a>
    26a0:	01 97       	sbiw	r24, 0x01	; 1
    26a2:	69 f0       	breq	.+26     	; 0x26be <Tick_song+0x92>
    26a4:	18 c0       	rjmp	.+48     	; 0x26d6 <Tick_song+0xaa>
		case songStart:
		if (GameStart == 0x01)
    26a6:	80 91 27 07 	lds	r24, 0x0727	; 0x800727 <GameStart>
    26aa:	81 30       	cpi	r24, 0x01	; 1
    26ac:	29 f4       	brne	.+10     	; 0x26b8 <Tick_song+0x8c>
		{
			state = songPlay;
    26ae:	81 e0       	ldi	r24, 0x01	; 1
    26b0:	90 e0       	ldi	r25, 0x00	; 0
    26b2:	9a 83       	std	Y+2, r25	; 0x02
    26b4:	89 83       	std	Y+1, r24	; 0x01
		}else{
			//PWM_off();
			state = songStart;
		}
		break;
    26b6:	12 c0       	rjmp	.+36     	; 0x26dc <Tick_song+0xb0>
		if (GameStart == 0x01)
		{
			state = songPlay;
		}else{
			//PWM_off();
			state = songStart;
    26b8:	1a 82       	std	Y+2, r1	; 0x02
    26ba:	19 82       	std	Y+1, r1	; 0x01
		}
		break;
    26bc:	0f c0       	rjmp	.+30     	; 0x26dc <Tick_song+0xb0>
		
		case songPlay:
		if (GameStart == 0x01)
    26be:	80 91 27 07 	lds	r24, 0x0727	; 0x800727 <GameStart>
    26c2:	81 30       	cpi	r24, 0x01	; 1
    26c4:	29 f4       	brne	.+10     	; 0x26d0 <Tick_song+0xa4>
		{
			state = songPlay;
    26c6:	81 e0       	ldi	r24, 0x01	; 1
    26c8:	90 e0       	ldi	r25, 0x00	; 0
    26ca:	9a 83       	std	Y+2, r25	; 0x02
    26cc:	89 83       	std	Y+1, r24	; 0x01
		}else{
			state = songStart;
		}
		break;
    26ce:	06 c0       	rjmp	.+12     	; 0x26dc <Tick_song+0xb0>
		case songPlay:
		if (GameStart == 0x01)
		{
			state = songPlay;
		}else{
			state = songStart;
    26d0:	1a 82       	std	Y+2, r1	; 0x02
    26d2:	19 82       	std	Y+1, r1	; 0x01
		}
		break;
    26d4:	03 c0       	rjmp	.+6      	; 0x26dc <Tick_song+0xb0>
		
		default:
		state = songStart;
    26d6:	1a 82       	std	Y+2, r1	; 0x02
    26d8:	19 82       	std	Y+1, r1	; 0x01
		break;
    26da:	00 00       	nop
	}
	
	switch(state){
    26dc:	89 81       	ldd	r24, Y+1	; 0x01
    26de:	9a 81       	ldd	r25, Y+2	; 0x02
    26e0:	00 97       	sbiw	r24, 0x00	; 0
    26e2:	19 f0       	breq	.+6      	; 0x26ea <Tick_song+0xbe>
    26e4:	01 97       	sbiw	r24, 0x01	; 1
    26e6:	a1 f0       	breq	.+40     	; 0x2710 <Tick_song+0xe4>
    26e8:	af c0       	rjmp	.+350    	; 0x2848 <Tick_song+0x21c>
		
		case songStart:
		songCount = 0;
    26ea:	10 92 37 07 	sts	0x0737, r1	; 0x800737 <songCount.2243>
		songTime = 0;
    26ee:	10 92 38 07 	sts	0x0738, r1	; 0x800738 <songTime.2244>
    26f2:	10 92 39 07 	sts	0x0739, r1	; 0x800739 <songTime.2244+0x1>
    26f6:	10 92 3a 07 	sts	0x073A, r1	; 0x80073a <songTime.2244+0x2>
    26fa:	10 92 3b 07 	sts	0x073B, r1	; 0x80073b <songTime.2244+0x3>
		songSleep = 0;
    26fe:	10 92 3c 07 	sts	0x073C, r1	; 0x80073c <songSleep.2245>
    2702:	10 92 3d 07 	sts	0x073D, r1	; 0x80073d <songSleep.2245+0x1>
    2706:	10 92 3e 07 	sts	0x073E, r1	; 0x80073e <songSleep.2245+0x2>
    270a:	10 92 3f 07 	sts	0x073F, r1	; 0x80073f <songSleep.2245+0x3>
		break;
    270e:	9c c0       	rjmp	.+312    	; 0x2848 <Tick_song+0x21c>
		
		case songPlay:
		
		
		if(songCount < 91){//73 or 91
    2710:	80 91 37 07 	lds	r24, 0x0737	; 0x800737 <songCount.2243>
    2714:	8b 35       	cpi	r24, 0x5B	; 91
    2716:	08 f0       	brcs	.+2      	; 0x271a <Tick_song+0xee>
    2718:	94 c0       	rjmp	.+296    	; 0x2842 <Tick_song+0x216>
			
			if (songTime == duration[songCount])
    271a:	80 91 38 07 	lds	r24, 0x0738	; 0x800738 <songTime.2244>
    271e:	90 91 39 07 	lds	r25, 0x0739	; 0x800739 <songTime.2244+0x1>
    2722:	a0 91 3a 07 	lds	r26, 0x073A	; 0x80073a <songTime.2244+0x2>
    2726:	b0 91 3b 07 	lds	r27, 0x073B	; 0x80073b <songTime.2244+0x3>
    272a:	bc 01       	movw	r22, r24
    272c:	cd 01       	movw	r24, r26
    272e:	52 d3       	rcall	.+1700   	; 0x2dd4 <__floatsisf>
    2730:	7b 01       	movw	r14, r22
    2732:	8c 01       	movw	r16, r24
    2734:	80 91 37 07 	lds	r24, 0x0737	; 0x800737 <songCount.2243>
    2738:	88 2f       	mov	r24, r24
    273a:	90 e0       	ldi	r25, 0x00	; 0
    273c:	88 0f       	add	r24, r24
    273e:	99 1f       	adc	r25, r25
    2740:	88 0f       	add	r24, r24
    2742:	99 1f       	adc	r25, r25
    2744:	8f 50       	subi	r24, 0x0F	; 15
    2746:	9c 4f       	sbci	r25, 0xFC	; 252
    2748:	fc 01       	movw	r30, r24
    274a:	80 81       	ld	r24, Z
    274c:	91 81       	ldd	r25, Z+1	; 0x01
    274e:	a2 81       	ldd	r26, Z+2	; 0x02
    2750:	b3 81       	ldd	r27, Z+3	; 0x03
    2752:	9c 01       	movw	r18, r24
    2754:	ad 01       	movw	r20, r26
    2756:	c8 01       	movw	r24, r16
    2758:	b7 01       	movw	r22, r14
    275a:	9d d2       	rcall	.+1338   	; 0x2c96 <__cmpsf2>
    275c:	88 23       	and	r24, r24
    275e:	09 f0       	breq	.+2      	; 0x2762 <Tick_song+0x136>
			{
				set_PWM(0);
    2760:	4a c0       	rjmp	.+148    	; 0x27f6 <Tick_song+0x1ca>
    2762:	60 e0       	ldi	r22, 0x00	; 0
    2764:	70 e0       	ldi	r23, 0x00	; 0
    2766:	cb 01       	movw	r24, r22
    2768:	79 d8       	rcall	.-3854   	; 0x185c <set_PWM>
				if(songSleep == sleep[songCount]){
    276a:	80 91 37 07 	lds	r24, 0x0737	; 0x800737 <songCount.2243>
    276e:	88 2f       	mov	r24, r24
    2770:	90 e0       	ldi	r25, 0x00	; 0
    2772:	88 0f       	add	r24, r24
    2774:	99 1f       	adc	r25, r25
    2776:	88 0f       	add	r24, r24
    2778:	99 1f       	adc	r25, r25
    277a:	87 57       	subi	r24, 0x77	; 119
    277c:	9a 4f       	sbci	r25, 0xFA	; 250
    277e:	fc 01       	movw	r30, r24
    2780:	20 81       	ld	r18, Z
    2782:	31 81       	ldd	r19, Z+1	; 0x01
    2784:	42 81       	ldd	r20, Z+2	; 0x02
    2786:	53 81       	ldd	r21, Z+3	; 0x03
    2788:	80 91 3c 07 	lds	r24, 0x073C	; 0x80073c <songSleep.2245>
    278c:	90 91 3d 07 	lds	r25, 0x073D	; 0x80073d <songSleep.2245+0x1>
    2790:	a0 91 3e 07 	lds	r26, 0x073E	; 0x80073e <songSleep.2245+0x2>
    2794:	b0 91 3f 07 	lds	r27, 0x073F	; 0x80073f <songSleep.2245+0x3>
    2798:	28 17       	cp	r18, r24
    279a:	39 07       	cpc	r19, r25
    279c:	4a 07       	cpc	r20, r26
    279e:	5b 07       	cpc	r21, r27
    27a0:	b1 f4       	brne	.+44     	; 0x27ce <Tick_song+0x1a2>
					songTime = 0;
    27a2:	10 92 38 07 	sts	0x0738, r1	; 0x800738 <songTime.2244>
    27a6:	10 92 39 07 	sts	0x0739, r1	; 0x800739 <songTime.2244+0x1>
    27aa:	10 92 3a 07 	sts	0x073A, r1	; 0x80073a <songTime.2244+0x2>
    27ae:	10 92 3b 07 	sts	0x073B, r1	; 0x80073b <songTime.2244+0x3>
					songCount++;
    27b2:	80 91 37 07 	lds	r24, 0x0737	; 0x800737 <songCount.2243>
    27b6:	8f 5f       	subi	r24, 0xFF	; 255
    27b8:	80 93 37 07 	sts	0x0737, r24	; 0x800737 <songCount.2243>
					songSleep = 0;
    27bc:	10 92 3c 07 	sts	0x073C, r1	; 0x80073c <songSleep.2245>
    27c0:	10 92 3d 07 	sts	0x073D, r1	; 0x80073d <songSleep.2245+0x1>
    27c4:	10 92 3e 07 	sts	0x073E, r1	; 0x80073e <songSleep.2245+0x2>
    27c8:	10 92 3f 07 	sts	0x073F, r1	; 0x80073f <songSleep.2245+0x3>
			}
		}else{
			songCount = 0;
		}
		
		break;
    27cc:	3c c0       	rjmp	.+120    	; 0x2846 <Tick_song+0x21a>
					songTime = 0;
					songCount++;
					songSleep = 0;
				}else{
					
					songSleep += 50;
    27ce:	80 91 3c 07 	lds	r24, 0x073C	; 0x80073c <songSleep.2245>
    27d2:	90 91 3d 07 	lds	r25, 0x073D	; 0x80073d <songSleep.2245+0x1>
    27d6:	a0 91 3e 07 	lds	r26, 0x073E	; 0x80073e <songSleep.2245+0x2>
    27da:	b0 91 3f 07 	lds	r27, 0x073F	; 0x80073f <songSleep.2245+0x3>
    27de:	c2 96       	adiw	r24, 0x32	; 50
    27e0:	a1 1d       	adc	r26, r1
    27e2:	b1 1d       	adc	r27, r1
    27e4:	80 93 3c 07 	sts	0x073C, r24	; 0x80073c <songSleep.2245>
    27e8:	90 93 3d 07 	sts	0x073D, r25	; 0x80073d <songSleep.2245+0x1>
    27ec:	a0 93 3e 07 	sts	0x073E, r26	; 0x80073e <songSleep.2245+0x2>
    27f0:	b0 93 3f 07 	sts	0x073F, r27	; 0x80073f <songSleep.2245+0x3>
			}
		}else{
			songCount = 0;
		}
		
		break;
    27f4:	28 c0       	rjmp	.+80     	; 0x2846 <Tick_song+0x21a>
					
					songSleep += 50;
				}	
				
			}else{
				set_PWM(note[songCount]);
    27f6:	80 91 37 07 	lds	r24, 0x0737	; 0x800737 <songCount.2243>
    27fa:	88 2f       	mov	r24, r24
    27fc:	90 e0       	ldi	r25, 0x00	; 0
    27fe:	88 0f       	add	r24, r24
    2800:	99 1f       	adc	r25, r25
    2802:	88 0f       	add	r24, r24
    2804:	99 1f       	adc	r25, r25
    2806:	87 5a       	subi	r24, 0xA7	; 167
    2808:	9d 4f       	sbci	r25, 0xFD	; 253
    280a:	fc 01       	movw	r30, r24
    280c:	80 81       	ld	r24, Z
    280e:	91 81       	ldd	r25, Z+1	; 0x01
    2810:	a2 81       	ldd	r26, Z+2	; 0x02
    2812:	b3 81       	ldd	r27, Z+3	; 0x03
    2814:	bc 01       	movw	r22, r24
    2816:	cd 01       	movw	r24, r26
    2818:	21 d8       	rcall	.-4030   	; 0x185c <set_PWM>
				songTime += 50;
    281a:	80 91 38 07 	lds	r24, 0x0738	; 0x800738 <songTime.2244>
    281e:	90 91 39 07 	lds	r25, 0x0739	; 0x800739 <songTime.2244+0x1>
    2822:	a0 91 3a 07 	lds	r26, 0x073A	; 0x80073a <songTime.2244+0x2>
    2826:	b0 91 3b 07 	lds	r27, 0x073B	; 0x80073b <songTime.2244+0x3>
    282a:	c2 96       	adiw	r24, 0x32	; 50
    282c:	a1 1d       	adc	r26, r1
    282e:	b1 1d       	adc	r27, r1
    2830:	80 93 38 07 	sts	0x0738, r24	; 0x800738 <songTime.2244>
    2834:	90 93 39 07 	sts	0x0739, r25	; 0x800739 <songTime.2244+0x1>
    2838:	a0 93 3a 07 	sts	0x073A, r26	; 0x80073a <songTime.2244+0x2>
    283c:	b0 93 3b 07 	sts	0x073B, r27	; 0x80073b <songTime.2244+0x3>
			}
		}else{
			songCount = 0;
		}
		
		break;
    2840:	02 c0       	rjmp	.+4      	; 0x2846 <Tick_song+0x21a>
			}else{
				set_PWM(note[songCount]);
				songTime += 50;
			}
		}else{
			songCount = 0;
    2842:	10 92 37 07 	sts	0x0737, r1	; 0x800737 <songCount.2243>
		}
		
		break;
    2846:	00 00       	nop
		
	}
	return state;
    2848:	89 81       	ldd	r24, Y+1	; 0x01
    284a:	9a 81       	ldd	r25, Y+2	; 0x02
}
    284c:	0f 90       	pop	r0
    284e:	0f 90       	pop	r0
    2850:	df 91       	pop	r29
    2852:	cf 91       	pop	r28
    2854:	1f 91       	pop	r17
    2856:	0f 91       	pop	r16
    2858:	ff 90       	pop	r15
    285a:	ef 90       	pop	r14
    285c:	08 95       	ret

0000285e <main>:


int main(void)
{
    285e:	cf 93       	push	r28
    2860:	df 93       	push	r29
    2862:	1f 92       	push	r1
    2864:	cd b7       	in	r28, 0x3d	; 61
    2866:	de b7       	in	r29, 0x3e	; 62
	//=========Initializing task on structure===========//
	unsigned char i=0;
    2868:	19 82       	std	Y+1, r1	; 0x01
	tasks[i].state = Bstart;
    286a:	89 81       	ldd	r24, Y+1	; 0x01
    286c:	28 2f       	mov	r18, r24
    286e:	30 e0       	ldi	r19, 0x00	; 0
    2870:	c9 01       	movw	r24, r18
    2872:	88 0f       	add	r24, r24
    2874:	99 1f       	adc	r25, r25
    2876:	82 0f       	add	r24, r18
    2878:	93 1f       	adc	r25, r19
    287a:	88 0f       	add	r24, r24
    287c:	99 1f       	adc	r25, r25
    287e:	88 0f       	add	r24, r24
    2880:	99 1f       	adc	r25, r25
    2882:	80 5c       	subi	r24, 0xC0	; 192
    2884:	98 4f       	sbci	r25, 0xF8	; 248
    2886:	fc 01       	movw	r30, r24
    2888:	11 82       	std	Z+1, r1	; 0x01
    288a:	10 82       	st	Z, r1
	tasks[i].period = BluetoothPeriod;
    288c:	89 81       	ldd	r24, Y+1	; 0x01
    288e:	68 2f       	mov	r22, r24
    2890:	70 e0       	ldi	r23, 0x00	; 0
    2892:	22 e0       	ldi	r18, 0x02	; 2
    2894:	30 e0       	ldi	r19, 0x00	; 0
    2896:	40 e0       	ldi	r20, 0x00	; 0
    2898:	50 e0       	ldi	r21, 0x00	; 0
    289a:	cb 01       	movw	r24, r22
    289c:	88 0f       	add	r24, r24
    289e:	99 1f       	adc	r25, r25
    28a0:	86 0f       	add	r24, r22
    28a2:	97 1f       	adc	r25, r23
    28a4:	88 0f       	add	r24, r24
    28a6:	99 1f       	adc	r25, r25
    28a8:	88 0f       	add	r24, r24
    28aa:	99 1f       	adc	r25, r25
    28ac:	8e 5b       	subi	r24, 0xBE	; 190
    28ae:	98 4f       	sbci	r25, 0xF8	; 248
    28b0:	fc 01       	movw	r30, r24
    28b2:	20 83       	st	Z, r18
    28b4:	31 83       	std	Z+1, r19	; 0x01
    28b6:	42 83       	std	Z+2, r20	; 0x02
    28b8:	53 83       	std	Z+3, r21	; 0x03
	tasks[i].elapsedTime = tasks[i].period;
    28ba:	89 81       	ldd	r24, Y+1	; 0x01
    28bc:	68 2f       	mov	r22, r24
    28be:	70 e0       	ldi	r23, 0x00	; 0
    28c0:	89 81       	ldd	r24, Y+1	; 0x01
    28c2:	28 2f       	mov	r18, r24
    28c4:	30 e0       	ldi	r19, 0x00	; 0
    28c6:	c9 01       	movw	r24, r18
    28c8:	88 0f       	add	r24, r24
    28ca:	99 1f       	adc	r25, r25
    28cc:	82 0f       	add	r24, r18
    28ce:	93 1f       	adc	r25, r19
    28d0:	88 0f       	add	r24, r24
    28d2:	99 1f       	adc	r25, r25
    28d4:	88 0f       	add	r24, r24
    28d6:	99 1f       	adc	r25, r25
    28d8:	8e 5b       	subi	r24, 0xBE	; 190
    28da:	98 4f       	sbci	r25, 0xF8	; 248
    28dc:	fc 01       	movw	r30, r24
    28de:	20 81       	ld	r18, Z
    28e0:	31 81       	ldd	r19, Z+1	; 0x01
    28e2:	42 81       	ldd	r20, Z+2	; 0x02
    28e4:	53 81       	ldd	r21, Z+3	; 0x03
    28e6:	cb 01       	movw	r24, r22
    28e8:	88 0f       	add	r24, r24
    28ea:	99 1f       	adc	r25, r25
    28ec:	86 0f       	add	r24, r22
    28ee:	97 1f       	adc	r25, r23
    28f0:	88 0f       	add	r24, r24
    28f2:	99 1f       	adc	r25, r25
    28f4:	88 0f       	add	r24, r24
    28f6:	99 1f       	adc	r25, r25
    28f8:	8a 5b       	subi	r24, 0xBA	; 186
    28fa:	98 4f       	sbci	r25, 0xF8	; 248
    28fc:	fc 01       	movw	r30, r24
    28fe:	20 83       	st	Z, r18
    2900:	31 83       	std	Z+1, r19	; 0x01
    2902:	42 83       	std	Z+2, r20	; 0x02
    2904:	53 83       	std	Z+3, r21	; 0x03
	tasks[i].TickFct = &Tick_bluetooth;
    2906:	89 81       	ldd	r24, Y+1	; 0x01
    2908:	28 2f       	mov	r18, r24
    290a:	30 e0       	ldi	r19, 0x00	; 0
    290c:	c9 01       	movw	r24, r18
    290e:	88 0f       	add	r24, r24
    2910:	99 1f       	adc	r25, r25
    2912:	82 0f       	add	r24, r18
    2914:	93 1f       	adc	r25, r19
    2916:	88 0f       	add	r24, r24
    2918:	99 1f       	adc	r25, r25
    291a:	88 0f       	add	r24, r24
    291c:	99 1f       	adc	r25, r25
    291e:	86 5b       	subi	r24, 0xB6	; 182
    2920:	98 4f       	sbci	r25, 0xF8	; 248
    2922:	23 e8       	ldi	r18, 0x83	; 131
    2924:	3e e0       	ldi	r19, 0x0E	; 14
    2926:	fc 01       	movw	r30, r24
    2928:	31 83       	std	Z+1, r19	; 0x01
    292a:	20 83       	st	Z, r18
	i++;
    292c:	89 81       	ldd	r24, Y+1	; 0x01
    292e:	8f 5f       	subi	r24, 0xFF	; 255
    2930:	89 83       	std	Y+1, r24	; 0x01
	tasks[i].state = start;
    2932:	89 81       	ldd	r24, Y+1	; 0x01
    2934:	28 2f       	mov	r18, r24
    2936:	30 e0       	ldi	r19, 0x00	; 0
    2938:	c9 01       	movw	r24, r18
    293a:	88 0f       	add	r24, r24
    293c:	99 1f       	adc	r25, r25
    293e:	82 0f       	add	r24, r18
    2940:	93 1f       	adc	r25, r19
    2942:	88 0f       	add	r24, r24
    2944:	99 1f       	adc	r25, r25
    2946:	88 0f       	add	r24, r24
    2948:	99 1f       	adc	r25, r25
    294a:	80 5c       	subi	r24, 0xC0	; 192
    294c:	98 4f       	sbci	r25, 0xF8	; 248
    294e:	fc 01       	movw	r30, r24
    2950:	11 82       	std	Z+1, r1	; 0x01
    2952:	10 82       	st	Z, r1
	tasks[i].period = DisplayPeriod;
    2954:	89 81       	ldd	r24, Y+1	; 0x01
    2956:	68 2f       	mov	r22, r24
    2958:	70 e0       	ldi	r23, 0x00	; 0
    295a:	22 e0       	ldi	r18, 0x02	; 2
    295c:	30 e0       	ldi	r19, 0x00	; 0
    295e:	40 e0       	ldi	r20, 0x00	; 0
    2960:	50 e0       	ldi	r21, 0x00	; 0
    2962:	cb 01       	movw	r24, r22
    2964:	88 0f       	add	r24, r24
    2966:	99 1f       	adc	r25, r25
    2968:	86 0f       	add	r24, r22
    296a:	97 1f       	adc	r25, r23
    296c:	88 0f       	add	r24, r24
    296e:	99 1f       	adc	r25, r25
    2970:	88 0f       	add	r24, r24
    2972:	99 1f       	adc	r25, r25
    2974:	8e 5b       	subi	r24, 0xBE	; 190
    2976:	98 4f       	sbci	r25, 0xF8	; 248
    2978:	fc 01       	movw	r30, r24
    297a:	20 83       	st	Z, r18
    297c:	31 83       	std	Z+1, r19	; 0x01
    297e:	42 83       	std	Z+2, r20	; 0x02
    2980:	53 83       	std	Z+3, r21	; 0x03
	tasks[i].elapsedTime = tasks[i].period;
    2982:	89 81       	ldd	r24, Y+1	; 0x01
    2984:	68 2f       	mov	r22, r24
    2986:	70 e0       	ldi	r23, 0x00	; 0
    2988:	89 81       	ldd	r24, Y+1	; 0x01
    298a:	28 2f       	mov	r18, r24
    298c:	30 e0       	ldi	r19, 0x00	; 0
    298e:	c9 01       	movw	r24, r18
    2990:	88 0f       	add	r24, r24
    2992:	99 1f       	adc	r25, r25
    2994:	82 0f       	add	r24, r18
    2996:	93 1f       	adc	r25, r19
    2998:	88 0f       	add	r24, r24
    299a:	99 1f       	adc	r25, r25
    299c:	88 0f       	add	r24, r24
    299e:	99 1f       	adc	r25, r25
    29a0:	8e 5b       	subi	r24, 0xBE	; 190
    29a2:	98 4f       	sbci	r25, 0xF8	; 248
    29a4:	fc 01       	movw	r30, r24
    29a6:	20 81       	ld	r18, Z
    29a8:	31 81       	ldd	r19, Z+1	; 0x01
    29aa:	42 81       	ldd	r20, Z+2	; 0x02
    29ac:	53 81       	ldd	r21, Z+3	; 0x03
    29ae:	cb 01       	movw	r24, r22
    29b0:	88 0f       	add	r24, r24
    29b2:	99 1f       	adc	r25, r25
    29b4:	86 0f       	add	r24, r22
    29b6:	97 1f       	adc	r25, r23
    29b8:	88 0f       	add	r24, r24
    29ba:	99 1f       	adc	r25, r25
    29bc:	88 0f       	add	r24, r24
    29be:	99 1f       	adc	r25, r25
    29c0:	8a 5b       	subi	r24, 0xBA	; 186
    29c2:	98 4f       	sbci	r25, 0xF8	; 248
    29c4:	fc 01       	movw	r30, r24
    29c6:	20 83       	st	Z, r18
    29c8:	31 83       	std	Z+1, r19	; 0x01
    29ca:	42 83       	std	Z+2, r20	; 0x02
    29cc:	53 83       	std	Z+3, r21	; 0x03
	tasks[i].TickFct = &Tick_display;
    29ce:	89 81       	ldd	r24, Y+1	; 0x01
    29d0:	28 2f       	mov	r18, r24
    29d2:	30 e0       	ldi	r19, 0x00	; 0
    29d4:	c9 01       	movw	r24, r18
    29d6:	88 0f       	add	r24, r24
    29d8:	99 1f       	adc	r25, r25
    29da:	82 0f       	add	r24, r18
    29dc:	93 1f       	adc	r25, r19
    29de:	88 0f       	add	r24, r24
    29e0:	99 1f       	adc	r25, r25
    29e2:	88 0f       	add	r24, r24
    29e4:	99 1f       	adc	r25, r25
    29e6:	86 5b       	subi	r24, 0xB6	; 182
    29e8:	98 4f       	sbci	r25, 0xF8	; 248
    29ea:	21 e1       	ldi	r18, 0x11	; 17
    29ec:	3f e0       	ldi	r19, 0x0F	; 15
    29ee:	fc 01       	movw	r30, r24
    29f0:	31 83       	std	Z+1, r19	; 0x01
    29f2:	20 83       	st	Z, r18
	i++;
    29f4:	89 81       	ldd	r24, Y+1	; 0x01
    29f6:	8f 5f       	subi	r24, 0xFF	; 255
    29f8:	89 83       	std	Y+1, r24	; 0x01
	tasks[i].state = O_start;
    29fa:	89 81       	ldd	r24, Y+1	; 0x01
    29fc:	28 2f       	mov	r18, r24
    29fe:	30 e0       	ldi	r19, 0x00	; 0
    2a00:	c9 01       	movw	r24, r18
    2a02:	88 0f       	add	r24, r24
    2a04:	99 1f       	adc	r25, r25
    2a06:	82 0f       	add	r24, r18
    2a08:	93 1f       	adc	r25, r19
    2a0a:	88 0f       	add	r24, r24
    2a0c:	99 1f       	adc	r25, r25
    2a0e:	88 0f       	add	r24, r24
    2a10:	99 1f       	adc	r25, r25
    2a12:	80 5c       	subi	r24, 0xC0	; 192
    2a14:	98 4f       	sbci	r25, 0xF8	; 248
    2a16:	fc 01       	movw	r30, r24
    2a18:	11 82       	std	Z+1, r1	; 0x01
    2a1a:	10 82       	st	Z, r1
	tasks[i].period = outputperiod;
    2a1c:	89 81       	ldd	r24, Y+1	; 0x01
    2a1e:	68 2f       	mov	r22, r24
    2a20:	70 e0       	ldi	r23, 0x00	; 0
    2a22:	22 e0       	ldi	r18, 0x02	; 2
    2a24:	30 e0       	ldi	r19, 0x00	; 0
    2a26:	40 e0       	ldi	r20, 0x00	; 0
    2a28:	50 e0       	ldi	r21, 0x00	; 0
    2a2a:	cb 01       	movw	r24, r22
    2a2c:	88 0f       	add	r24, r24
    2a2e:	99 1f       	adc	r25, r25
    2a30:	86 0f       	add	r24, r22
    2a32:	97 1f       	adc	r25, r23
    2a34:	88 0f       	add	r24, r24
    2a36:	99 1f       	adc	r25, r25
    2a38:	88 0f       	add	r24, r24
    2a3a:	99 1f       	adc	r25, r25
    2a3c:	8e 5b       	subi	r24, 0xBE	; 190
    2a3e:	98 4f       	sbci	r25, 0xF8	; 248
    2a40:	fc 01       	movw	r30, r24
    2a42:	20 83       	st	Z, r18
    2a44:	31 83       	std	Z+1, r19	; 0x01
    2a46:	42 83       	std	Z+2, r20	; 0x02
    2a48:	53 83       	std	Z+3, r21	; 0x03
	tasks[i].elapsedTime = tasks[i].period;
    2a4a:	89 81       	ldd	r24, Y+1	; 0x01
    2a4c:	68 2f       	mov	r22, r24
    2a4e:	70 e0       	ldi	r23, 0x00	; 0
    2a50:	89 81       	ldd	r24, Y+1	; 0x01
    2a52:	28 2f       	mov	r18, r24
    2a54:	30 e0       	ldi	r19, 0x00	; 0
    2a56:	c9 01       	movw	r24, r18
    2a58:	88 0f       	add	r24, r24
    2a5a:	99 1f       	adc	r25, r25
    2a5c:	82 0f       	add	r24, r18
    2a5e:	93 1f       	adc	r25, r19
    2a60:	88 0f       	add	r24, r24
    2a62:	99 1f       	adc	r25, r25
    2a64:	88 0f       	add	r24, r24
    2a66:	99 1f       	adc	r25, r25
    2a68:	8e 5b       	subi	r24, 0xBE	; 190
    2a6a:	98 4f       	sbci	r25, 0xF8	; 248
    2a6c:	fc 01       	movw	r30, r24
    2a6e:	20 81       	ld	r18, Z
    2a70:	31 81       	ldd	r19, Z+1	; 0x01
    2a72:	42 81       	ldd	r20, Z+2	; 0x02
    2a74:	53 81       	ldd	r21, Z+3	; 0x03
    2a76:	cb 01       	movw	r24, r22
    2a78:	88 0f       	add	r24, r24
    2a7a:	99 1f       	adc	r25, r25
    2a7c:	86 0f       	add	r24, r22
    2a7e:	97 1f       	adc	r25, r23
    2a80:	88 0f       	add	r24, r24
    2a82:	99 1f       	adc	r25, r25
    2a84:	88 0f       	add	r24, r24
    2a86:	99 1f       	adc	r25, r25
    2a88:	8a 5b       	subi	r24, 0xBA	; 186
    2a8a:	98 4f       	sbci	r25, 0xF8	; 248
    2a8c:	fc 01       	movw	r30, r24
    2a8e:	20 83       	st	Z, r18
    2a90:	31 83       	std	Z+1, r19	; 0x01
    2a92:	42 83       	std	Z+2, r20	; 0x02
    2a94:	53 83       	std	Z+3, r21	; 0x03
	tasks[i].TickFct = &Tick_output;
    2a96:	89 81       	ldd	r24, Y+1	; 0x01
    2a98:	28 2f       	mov	r18, r24
    2a9a:	30 e0       	ldi	r19, 0x00	; 0
    2a9c:	c9 01       	movw	r24, r18
    2a9e:	88 0f       	add	r24, r24
    2aa0:	99 1f       	adc	r25, r25
    2aa2:	82 0f       	add	r24, r18
    2aa4:	93 1f       	adc	r25, r19
    2aa6:	88 0f       	add	r24, r24
    2aa8:	99 1f       	adc	r25, r25
    2aaa:	88 0f       	add	r24, r24
    2aac:	99 1f       	adc	r25, r25
    2aae:	86 5b       	subi	r24, 0xB6	; 182
    2ab0:	98 4f       	sbci	r25, 0xF8	; 248
    2ab2:	2d e2       	ldi	r18, 0x2D	; 45
    2ab4:	32 e1       	ldi	r19, 0x12	; 18
    2ab6:	fc 01       	movw	r30, r24
    2ab8:	31 83       	std	Z+1, r19	; 0x01
    2aba:	20 83       	st	Z, r18
	i++;
    2abc:	89 81       	ldd	r24, Y+1	; 0x01
    2abe:	8f 5f       	subi	r24, 0xFF	; 255
    2ac0:	89 83       	std	Y+1, r24	; 0x01
	tasks[i].state = dis_init;
    2ac2:	89 81       	ldd	r24, Y+1	; 0x01
    2ac4:	28 2f       	mov	r18, r24
    2ac6:	30 e0       	ldi	r19, 0x00	; 0
    2ac8:	c9 01       	movw	r24, r18
    2aca:	88 0f       	add	r24, r24
    2acc:	99 1f       	adc	r25, r25
    2ace:	82 0f       	add	r24, r18
    2ad0:	93 1f       	adc	r25, r19
    2ad2:	88 0f       	add	r24, r24
    2ad4:	99 1f       	adc	r25, r25
    2ad6:	88 0f       	add	r24, r24
    2ad8:	99 1f       	adc	r25, r25
    2ada:	80 5c       	subi	r24, 0xC0	; 192
    2adc:	98 4f       	sbci	r25, 0xF8	; 248
    2ade:	fc 01       	movw	r30, r24
    2ae0:	11 82       	std	Z+1, r1	; 0x01
    2ae2:	10 82       	st	Z, r1
	tasks[i].period = LCDdisplayPeriod;
    2ae4:	89 81       	ldd	r24, Y+1	; 0x01
    2ae6:	68 2f       	mov	r22, r24
    2ae8:	70 e0       	ldi	r23, 0x00	; 0
    2aea:	22 e3       	ldi	r18, 0x32	; 50
    2aec:	30 e0       	ldi	r19, 0x00	; 0
    2aee:	40 e0       	ldi	r20, 0x00	; 0
    2af0:	50 e0       	ldi	r21, 0x00	; 0
    2af2:	cb 01       	movw	r24, r22
    2af4:	88 0f       	add	r24, r24
    2af6:	99 1f       	adc	r25, r25
    2af8:	86 0f       	add	r24, r22
    2afa:	97 1f       	adc	r25, r23
    2afc:	88 0f       	add	r24, r24
    2afe:	99 1f       	adc	r25, r25
    2b00:	88 0f       	add	r24, r24
    2b02:	99 1f       	adc	r25, r25
    2b04:	8e 5b       	subi	r24, 0xBE	; 190
    2b06:	98 4f       	sbci	r25, 0xF8	; 248
    2b08:	fc 01       	movw	r30, r24
    2b0a:	20 83       	st	Z, r18
    2b0c:	31 83       	std	Z+1, r19	; 0x01
    2b0e:	42 83       	std	Z+2, r20	; 0x02
    2b10:	53 83       	std	Z+3, r21	; 0x03
	tasks[i].elapsedTime = tasks[i].period;
    2b12:	89 81       	ldd	r24, Y+1	; 0x01
    2b14:	68 2f       	mov	r22, r24
    2b16:	70 e0       	ldi	r23, 0x00	; 0
    2b18:	89 81       	ldd	r24, Y+1	; 0x01
    2b1a:	28 2f       	mov	r18, r24
    2b1c:	30 e0       	ldi	r19, 0x00	; 0
    2b1e:	c9 01       	movw	r24, r18
    2b20:	88 0f       	add	r24, r24
    2b22:	99 1f       	adc	r25, r25
    2b24:	82 0f       	add	r24, r18
    2b26:	93 1f       	adc	r25, r19
    2b28:	88 0f       	add	r24, r24
    2b2a:	99 1f       	adc	r25, r25
    2b2c:	88 0f       	add	r24, r24
    2b2e:	99 1f       	adc	r25, r25
    2b30:	8e 5b       	subi	r24, 0xBE	; 190
    2b32:	98 4f       	sbci	r25, 0xF8	; 248
    2b34:	fc 01       	movw	r30, r24
    2b36:	20 81       	ld	r18, Z
    2b38:	31 81       	ldd	r19, Z+1	; 0x01
    2b3a:	42 81       	ldd	r20, Z+2	; 0x02
    2b3c:	53 81       	ldd	r21, Z+3	; 0x03
    2b3e:	cb 01       	movw	r24, r22
    2b40:	88 0f       	add	r24, r24
    2b42:	99 1f       	adc	r25, r25
    2b44:	86 0f       	add	r24, r22
    2b46:	97 1f       	adc	r25, r23
    2b48:	88 0f       	add	r24, r24
    2b4a:	99 1f       	adc	r25, r25
    2b4c:	88 0f       	add	r24, r24
    2b4e:	99 1f       	adc	r25, r25
    2b50:	8a 5b       	subi	r24, 0xBA	; 186
    2b52:	98 4f       	sbci	r25, 0xF8	; 248
    2b54:	fc 01       	movw	r30, r24
    2b56:	20 83       	st	Z, r18
    2b58:	31 83       	std	Z+1, r19	; 0x01
    2b5a:	42 83       	std	Z+2, r20	; 0x02
    2b5c:	53 83       	std	Z+3, r21	; 0x03
	tasks[i].TickFct = &Tick_displayLCD;
    2b5e:	89 81       	ldd	r24, Y+1	; 0x01
    2b60:	28 2f       	mov	r18, r24
    2b62:	30 e0       	ldi	r19, 0x00	; 0
    2b64:	c9 01       	movw	r24, r18
    2b66:	88 0f       	add	r24, r24
    2b68:	99 1f       	adc	r25, r25
    2b6a:	82 0f       	add	r24, r18
    2b6c:	93 1f       	adc	r25, r19
    2b6e:	88 0f       	add	r24, r24
    2b70:	99 1f       	adc	r25, r25
    2b72:	88 0f       	add	r24, r24
    2b74:	99 1f       	adc	r25, r25
    2b76:	86 5b       	subi	r24, 0xB6	; 182
    2b78:	98 4f       	sbci	r25, 0xF8	; 248
    2b7a:	20 e5       	ldi	r18, 0x50	; 80
    2b7c:	32 e1       	ldi	r19, 0x12	; 18
    2b7e:	fc 01       	movw	r30, r24
    2b80:	31 83       	std	Z+1, r19	; 0x01
    2b82:	20 83       	st	Z, r18
	i++;
    2b84:	89 81       	ldd	r24, Y+1	; 0x01
    2b86:	8f 5f       	subi	r24, 0xFF	; 255
    2b88:	89 83       	std	Y+1, r24	; 0x01
	tasks[i].state = songStart;
    2b8a:	89 81       	ldd	r24, Y+1	; 0x01
    2b8c:	28 2f       	mov	r18, r24
    2b8e:	30 e0       	ldi	r19, 0x00	; 0
    2b90:	c9 01       	movw	r24, r18
    2b92:	88 0f       	add	r24, r24
    2b94:	99 1f       	adc	r25, r25
    2b96:	82 0f       	add	r24, r18
    2b98:	93 1f       	adc	r25, r19
    2b9a:	88 0f       	add	r24, r24
    2b9c:	99 1f       	adc	r25, r25
    2b9e:	88 0f       	add	r24, r24
    2ba0:	99 1f       	adc	r25, r25
    2ba2:	80 5c       	subi	r24, 0xC0	; 192
    2ba4:	98 4f       	sbci	r25, 0xF8	; 248
    2ba6:	fc 01       	movw	r30, r24
    2ba8:	11 82       	std	Z+1, r1	; 0x01
    2baa:	10 82       	st	Z, r1
	tasks[i].period = songPeriod;
    2bac:	89 81       	ldd	r24, Y+1	; 0x01
    2bae:	68 2f       	mov	r22, r24
    2bb0:	70 e0       	ldi	r23, 0x00	; 0
    2bb2:	24 e6       	ldi	r18, 0x64	; 100
    2bb4:	30 e0       	ldi	r19, 0x00	; 0
    2bb6:	40 e0       	ldi	r20, 0x00	; 0
    2bb8:	50 e0       	ldi	r21, 0x00	; 0
    2bba:	cb 01       	movw	r24, r22
    2bbc:	88 0f       	add	r24, r24
    2bbe:	99 1f       	adc	r25, r25
    2bc0:	86 0f       	add	r24, r22
    2bc2:	97 1f       	adc	r25, r23
    2bc4:	88 0f       	add	r24, r24
    2bc6:	99 1f       	adc	r25, r25
    2bc8:	88 0f       	add	r24, r24
    2bca:	99 1f       	adc	r25, r25
    2bcc:	8e 5b       	subi	r24, 0xBE	; 190
    2bce:	98 4f       	sbci	r25, 0xF8	; 248
    2bd0:	fc 01       	movw	r30, r24
    2bd2:	20 83       	st	Z, r18
    2bd4:	31 83       	std	Z+1, r19	; 0x01
    2bd6:	42 83       	std	Z+2, r20	; 0x02
    2bd8:	53 83       	std	Z+3, r21	; 0x03
	tasks[i].elapsedTime = tasks[i].period;
    2bda:	89 81       	ldd	r24, Y+1	; 0x01
    2bdc:	68 2f       	mov	r22, r24
    2bde:	70 e0       	ldi	r23, 0x00	; 0
    2be0:	89 81       	ldd	r24, Y+1	; 0x01
    2be2:	28 2f       	mov	r18, r24
    2be4:	30 e0       	ldi	r19, 0x00	; 0
    2be6:	c9 01       	movw	r24, r18
    2be8:	88 0f       	add	r24, r24
    2bea:	99 1f       	adc	r25, r25
    2bec:	82 0f       	add	r24, r18
    2bee:	93 1f       	adc	r25, r19
    2bf0:	88 0f       	add	r24, r24
    2bf2:	99 1f       	adc	r25, r25
    2bf4:	88 0f       	add	r24, r24
    2bf6:	99 1f       	adc	r25, r25
    2bf8:	8e 5b       	subi	r24, 0xBE	; 190
    2bfa:	98 4f       	sbci	r25, 0xF8	; 248
    2bfc:	fc 01       	movw	r30, r24
    2bfe:	20 81       	ld	r18, Z
    2c00:	31 81       	ldd	r19, Z+1	; 0x01
    2c02:	42 81       	ldd	r20, Z+2	; 0x02
    2c04:	53 81       	ldd	r21, Z+3	; 0x03
    2c06:	cb 01       	movw	r24, r22
    2c08:	88 0f       	add	r24, r24
    2c0a:	99 1f       	adc	r25, r25
    2c0c:	86 0f       	add	r24, r22
    2c0e:	97 1f       	adc	r25, r23
    2c10:	88 0f       	add	r24, r24
    2c12:	99 1f       	adc	r25, r25
    2c14:	88 0f       	add	r24, r24
    2c16:	99 1f       	adc	r25, r25
    2c18:	8a 5b       	subi	r24, 0xBA	; 186
    2c1a:	98 4f       	sbci	r25, 0xF8	; 248
    2c1c:	fc 01       	movw	r30, r24
    2c1e:	20 83       	st	Z, r18
    2c20:	31 83       	std	Z+1, r19	; 0x01
    2c22:	42 83       	std	Z+2, r20	; 0x02
    2c24:	53 83       	std	Z+3, r21	; 0x03
	tasks[i].TickFct = &Tick_song;
    2c26:	89 81       	ldd	r24, Y+1	; 0x01
    2c28:	28 2f       	mov	r18, r24
    2c2a:	30 e0       	ldi	r19, 0x00	; 0
    2c2c:	c9 01       	movw	r24, r18
    2c2e:	88 0f       	add	r24, r24
    2c30:	99 1f       	adc	r25, r25
    2c32:	82 0f       	add	r24, r18
    2c34:	93 1f       	adc	r25, r19
    2c36:	88 0f       	add	r24, r24
    2c38:	99 1f       	adc	r25, r25
    2c3a:	88 0f       	add	r24, r24
    2c3c:	99 1f       	adc	r25, r25
    2c3e:	86 5b       	subi	r24, 0xB6	; 182
    2c40:	98 4f       	sbci	r25, 0xF8	; 248
    2c42:	26 e1       	ldi	r18, 0x16	; 22
    2c44:	33 e1       	ldi	r19, 0x13	; 19
    2c46:	fc 01       	movw	r30, r24
    2c48:	31 83       	std	Z+1, r19	; 0x01
    2c4a:	20 83       	st	Z, r18
	
	//=========Setting Ports===========//
	
	DDRA = 0xFF; //PORTA as output
    2c4c:	81 e2       	ldi	r24, 0x21	; 33
    2c4e:	90 e0       	ldi	r25, 0x00	; 0
    2c50:	2f ef       	ldi	r18, 0xFF	; 255
    2c52:	fc 01       	movw	r30, r24
    2c54:	20 83       	st	Z, r18
	DDRC = 0xFF; //PORTC as output
    2c56:	87 e2       	ldi	r24, 0x27	; 39
    2c58:	90 e0       	ldi	r25, 0x00	; 0
    2c5a:	2f ef       	ldi	r18, 0xFF	; 255
    2c5c:	fc 01       	movw	r30, r24
    2c5e:	20 83       	st	Z, r18
	
	DDRB=0xFF; PORTB = 0x00;
    2c60:	84 e2       	ldi	r24, 0x24	; 36
    2c62:	90 e0       	ldi	r25, 0x00	; 0
    2c64:	2f ef       	ldi	r18, 0xFF	; 255
    2c66:	fc 01       	movw	r30, r24
    2c68:	20 83       	st	Z, r18
    2c6a:	85 e2       	ldi	r24, 0x25	; 37
    2c6c:	90 e0       	ldi	r25, 0x00	; 0
    2c6e:	fc 01       	movw	r30, r24
    2c70:	10 82       	st	Z, r1
	

	
	//=========Timing===========//
	TimerSet(tasksPeriodGCD);
    2c72:	82 e0       	ldi	r24, 0x02	; 2
    2c74:	90 e0       	ldi	r25, 0x00	; 0
    2c76:	a0 e0       	ldi	r26, 0x00	; 0
    2c78:	b0 e0       	ldi	r27, 0x00	; 0
    2c7a:	bc 01       	movw	r22, r24
    2c7c:	cd 01       	movw	r24, r26
    2c7e:	0e 94 37 0e 	call	0x1c6e	; 0x1c6e <TimerSet>
	TimerOn();
    2c82:	0e 94 e4 0c 	call	0x19c8	; 0x19c8 <TimerOn>
	
	//=========INIT===========//
	initUSART(0);
    2c86:	80 e0       	ldi	r24, 0x00	; 0
    2c88:	0e 94 66 00 	call	0xcc	; 0xcc <initUSART>
	LCD_Init();
    2c8c:	0e 94 6b 0a 	call	0x14d6	; 0x14d6 <LCD_Init>
	PWM_on();
    2c90:	0e 94 ce 0c 	call	0x199c	; 0x199c <PWM_on>
	
	while(1) {
		
	}
    2c94:	ff cf       	rjmp	.-2      	; 0x2c94 <main+0x436>

00002c96 <__cmpsf2>:
    2c96:	d9 d0       	rcall	.+434    	; 0x2e4a <__fp_cmp>
    2c98:	08 f4       	brcc	.+2      	; 0x2c9c <__cmpsf2+0x6>
    2c9a:	81 e0       	ldi	r24, 0x01	; 1
    2c9c:	08 95       	ret

00002c9e <__divsf3>:
    2c9e:	0c d0       	rcall	.+24     	; 0x2cb8 <__divsf3x>
    2ca0:	0f c1       	rjmp	.+542    	; 0x2ec0 <__fp_round>
    2ca2:	07 d1       	rcall	.+526    	; 0x2eb2 <__fp_pscB>
    2ca4:	40 f0       	brcs	.+16     	; 0x2cb6 <__divsf3+0x18>
    2ca6:	fe d0       	rcall	.+508    	; 0x2ea4 <__fp_pscA>
    2ca8:	30 f0       	brcs	.+12     	; 0x2cb6 <__divsf3+0x18>
    2caa:	21 f4       	brne	.+8      	; 0x2cb4 <__divsf3+0x16>
    2cac:	5f 3f       	cpi	r21, 0xFF	; 255
    2cae:	19 f0       	breq	.+6      	; 0x2cb6 <__divsf3+0x18>
    2cb0:	f0 c0       	rjmp	.+480    	; 0x2e92 <__fp_inf>
    2cb2:	51 11       	cpse	r21, r1
    2cb4:	39 c1       	rjmp	.+626    	; 0x2f28 <__fp_szero>
    2cb6:	f3 c0       	rjmp	.+486    	; 0x2e9e <__fp_nan>

00002cb8 <__divsf3x>:
    2cb8:	14 d1       	rcall	.+552    	; 0x2ee2 <__fp_split3>
    2cba:	98 f3       	brcs	.-26     	; 0x2ca2 <__divsf3+0x4>

00002cbc <__divsf3_pse>:
    2cbc:	99 23       	and	r25, r25
    2cbe:	c9 f3       	breq	.-14     	; 0x2cb2 <__divsf3+0x14>
    2cc0:	55 23       	and	r21, r21
    2cc2:	b1 f3       	breq	.-20     	; 0x2cb0 <__divsf3+0x12>
    2cc4:	95 1b       	sub	r25, r21
    2cc6:	55 0b       	sbc	r21, r21
    2cc8:	bb 27       	eor	r27, r27
    2cca:	aa 27       	eor	r26, r26
    2ccc:	62 17       	cp	r22, r18
    2cce:	73 07       	cpc	r23, r19
    2cd0:	84 07       	cpc	r24, r20
    2cd2:	38 f0       	brcs	.+14     	; 0x2ce2 <__divsf3_pse+0x26>
    2cd4:	9f 5f       	subi	r25, 0xFF	; 255
    2cd6:	5f 4f       	sbci	r21, 0xFF	; 255
    2cd8:	22 0f       	add	r18, r18
    2cda:	33 1f       	adc	r19, r19
    2cdc:	44 1f       	adc	r20, r20
    2cde:	aa 1f       	adc	r26, r26
    2ce0:	a9 f3       	breq	.-22     	; 0x2ccc <__divsf3_pse+0x10>
    2ce2:	33 d0       	rcall	.+102    	; 0x2d4a <__divsf3_pse+0x8e>
    2ce4:	0e 2e       	mov	r0, r30
    2ce6:	3a f0       	brmi	.+14     	; 0x2cf6 <__divsf3_pse+0x3a>
    2ce8:	e0 e8       	ldi	r30, 0x80	; 128
    2cea:	30 d0       	rcall	.+96     	; 0x2d4c <__divsf3_pse+0x90>
    2cec:	91 50       	subi	r25, 0x01	; 1
    2cee:	50 40       	sbci	r21, 0x00	; 0
    2cf0:	e6 95       	lsr	r30
    2cf2:	00 1c       	adc	r0, r0
    2cf4:	ca f7       	brpl	.-14     	; 0x2ce8 <__divsf3_pse+0x2c>
    2cf6:	29 d0       	rcall	.+82     	; 0x2d4a <__divsf3_pse+0x8e>
    2cf8:	fe 2f       	mov	r31, r30
    2cfa:	27 d0       	rcall	.+78     	; 0x2d4a <__divsf3_pse+0x8e>
    2cfc:	66 0f       	add	r22, r22
    2cfe:	77 1f       	adc	r23, r23
    2d00:	88 1f       	adc	r24, r24
    2d02:	bb 1f       	adc	r27, r27
    2d04:	26 17       	cp	r18, r22
    2d06:	37 07       	cpc	r19, r23
    2d08:	48 07       	cpc	r20, r24
    2d0a:	ab 07       	cpc	r26, r27
    2d0c:	b0 e8       	ldi	r27, 0x80	; 128
    2d0e:	09 f0       	breq	.+2      	; 0x2d12 <__divsf3_pse+0x56>
    2d10:	bb 0b       	sbc	r27, r27
    2d12:	80 2d       	mov	r24, r0
    2d14:	bf 01       	movw	r22, r30
    2d16:	ff 27       	eor	r31, r31
    2d18:	93 58       	subi	r25, 0x83	; 131
    2d1a:	5f 4f       	sbci	r21, 0xFF	; 255
    2d1c:	2a f0       	brmi	.+10     	; 0x2d28 <__divsf3_pse+0x6c>
    2d1e:	9e 3f       	cpi	r25, 0xFE	; 254
    2d20:	51 05       	cpc	r21, r1
    2d22:	68 f0       	brcs	.+26     	; 0x2d3e <__divsf3_pse+0x82>
    2d24:	b6 c0       	rjmp	.+364    	; 0x2e92 <__fp_inf>
    2d26:	00 c1       	rjmp	.+512    	; 0x2f28 <__fp_szero>
    2d28:	5f 3f       	cpi	r21, 0xFF	; 255
    2d2a:	ec f3       	brlt	.-6      	; 0x2d26 <__divsf3_pse+0x6a>
    2d2c:	98 3e       	cpi	r25, 0xE8	; 232
    2d2e:	dc f3       	brlt	.-10     	; 0x2d26 <__divsf3_pse+0x6a>
    2d30:	86 95       	lsr	r24
    2d32:	77 95       	ror	r23
    2d34:	67 95       	ror	r22
    2d36:	b7 95       	ror	r27
    2d38:	f7 95       	ror	r31
    2d3a:	9f 5f       	subi	r25, 0xFF	; 255
    2d3c:	c9 f7       	brne	.-14     	; 0x2d30 <__divsf3_pse+0x74>
    2d3e:	88 0f       	add	r24, r24
    2d40:	91 1d       	adc	r25, r1
    2d42:	96 95       	lsr	r25
    2d44:	87 95       	ror	r24
    2d46:	97 f9       	bld	r25, 7
    2d48:	08 95       	ret
    2d4a:	e1 e0       	ldi	r30, 0x01	; 1
    2d4c:	66 0f       	add	r22, r22
    2d4e:	77 1f       	adc	r23, r23
    2d50:	88 1f       	adc	r24, r24
    2d52:	bb 1f       	adc	r27, r27
    2d54:	62 17       	cp	r22, r18
    2d56:	73 07       	cpc	r23, r19
    2d58:	84 07       	cpc	r24, r20
    2d5a:	ba 07       	cpc	r27, r26
    2d5c:	20 f0       	brcs	.+8      	; 0x2d66 <__divsf3_pse+0xaa>
    2d5e:	62 1b       	sub	r22, r18
    2d60:	73 0b       	sbc	r23, r19
    2d62:	84 0b       	sbc	r24, r20
    2d64:	ba 0b       	sbc	r27, r26
    2d66:	ee 1f       	adc	r30, r30
    2d68:	88 f7       	brcc	.-30     	; 0x2d4c <__divsf3_pse+0x90>
    2d6a:	e0 95       	com	r30
    2d6c:	08 95       	ret

00002d6e <__fixsfsi>:
    2d6e:	04 d0       	rcall	.+8      	; 0x2d78 <__fixunssfsi>
    2d70:	68 94       	set
    2d72:	b1 11       	cpse	r27, r1
    2d74:	d9 c0       	rjmp	.+434    	; 0x2f28 <__fp_szero>
    2d76:	08 95       	ret

00002d78 <__fixunssfsi>:
    2d78:	bc d0       	rcall	.+376    	; 0x2ef2 <__fp_splitA>
    2d7a:	88 f0       	brcs	.+34     	; 0x2d9e <__fixunssfsi+0x26>
    2d7c:	9f 57       	subi	r25, 0x7F	; 127
    2d7e:	90 f0       	brcs	.+36     	; 0x2da4 <__fixunssfsi+0x2c>
    2d80:	b9 2f       	mov	r27, r25
    2d82:	99 27       	eor	r25, r25
    2d84:	b7 51       	subi	r27, 0x17	; 23
    2d86:	a0 f0       	brcs	.+40     	; 0x2db0 <__fixunssfsi+0x38>
    2d88:	d1 f0       	breq	.+52     	; 0x2dbe <__fixunssfsi+0x46>
    2d8a:	66 0f       	add	r22, r22
    2d8c:	77 1f       	adc	r23, r23
    2d8e:	88 1f       	adc	r24, r24
    2d90:	99 1f       	adc	r25, r25
    2d92:	1a f0       	brmi	.+6      	; 0x2d9a <__fixunssfsi+0x22>
    2d94:	ba 95       	dec	r27
    2d96:	c9 f7       	brne	.-14     	; 0x2d8a <__fixunssfsi+0x12>
    2d98:	12 c0       	rjmp	.+36     	; 0x2dbe <__fixunssfsi+0x46>
    2d9a:	b1 30       	cpi	r27, 0x01	; 1
    2d9c:	81 f0       	breq	.+32     	; 0x2dbe <__fixunssfsi+0x46>
    2d9e:	c3 d0       	rcall	.+390    	; 0x2f26 <__fp_zero>
    2da0:	b1 e0       	ldi	r27, 0x01	; 1
    2da2:	08 95       	ret
    2da4:	c0 c0       	rjmp	.+384    	; 0x2f26 <__fp_zero>
    2da6:	67 2f       	mov	r22, r23
    2da8:	78 2f       	mov	r23, r24
    2daa:	88 27       	eor	r24, r24
    2dac:	b8 5f       	subi	r27, 0xF8	; 248
    2dae:	39 f0       	breq	.+14     	; 0x2dbe <__fixunssfsi+0x46>
    2db0:	b9 3f       	cpi	r27, 0xF9	; 249
    2db2:	cc f3       	brlt	.-14     	; 0x2da6 <__fixunssfsi+0x2e>
    2db4:	86 95       	lsr	r24
    2db6:	77 95       	ror	r23
    2db8:	67 95       	ror	r22
    2dba:	b3 95       	inc	r27
    2dbc:	d9 f7       	brne	.-10     	; 0x2db4 <__fixunssfsi+0x3c>
    2dbe:	3e f4       	brtc	.+14     	; 0x2dce <__fixunssfsi+0x56>
    2dc0:	90 95       	com	r25
    2dc2:	80 95       	com	r24
    2dc4:	70 95       	com	r23
    2dc6:	61 95       	neg	r22
    2dc8:	7f 4f       	sbci	r23, 0xFF	; 255
    2dca:	8f 4f       	sbci	r24, 0xFF	; 255
    2dcc:	9f 4f       	sbci	r25, 0xFF	; 255
    2dce:	08 95       	ret

00002dd0 <__floatunsisf>:
    2dd0:	e8 94       	clt
    2dd2:	09 c0       	rjmp	.+18     	; 0x2de6 <__floatsisf+0x12>

00002dd4 <__floatsisf>:
    2dd4:	97 fb       	bst	r25, 7
    2dd6:	3e f4       	brtc	.+14     	; 0x2de6 <__floatsisf+0x12>
    2dd8:	90 95       	com	r25
    2dda:	80 95       	com	r24
    2ddc:	70 95       	com	r23
    2dde:	61 95       	neg	r22
    2de0:	7f 4f       	sbci	r23, 0xFF	; 255
    2de2:	8f 4f       	sbci	r24, 0xFF	; 255
    2de4:	9f 4f       	sbci	r25, 0xFF	; 255
    2de6:	99 23       	and	r25, r25
    2de8:	a9 f0       	breq	.+42     	; 0x2e14 <__floatsisf+0x40>
    2dea:	f9 2f       	mov	r31, r25
    2dec:	96 e9       	ldi	r25, 0x96	; 150
    2dee:	bb 27       	eor	r27, r27
    2df0:	93 95       	inc	r25
    2df2:	f6 95       	lsr	r31
    2df4:	87 95       	ror	r24
    2df6:	77 95       	ror	r23
    2df8:	67 95       	ror	r22
    2dfa:	b7 95       	ror	r27
    2dfc:	f1 11       	cpse	r31, r1
    2dfe:	f8 cf       	rjmp	.-16     	; 0x2df0 <__floatsisf+0x1c>
    2e00:	fa f4       	brpl	.+62     	; 0x2e40 <__floatsisf+0x6c>
    2e02:	bb 0f       	add	r27, r27
    2e04:	11 f4       	brne	.+4      	; 0x2e0a <__floatsisf+0x36>
    2e06:	60 ff       	sbrs	r22, 0
    2e08:	1b c0       	rjmp	.+54     	; 0x2e40 <__floatsisf+0x6c>
    2e0a:	6f 5f       	subi	r22, 0xFF	; 255
    2e0c:	7f 4f       	sbci	r23, 0xFF	; 255
    2e0e:	8f 4f       	sbci	r24, 0xFF	; 255
    2e10:	9f 4f       	sbci	r25, 0xFF	; 255
    2e12:	16 c0       	rjmp	.+44     	; 0x2e40 <__floatsisf+0x6c>
    2e14:	88 23       	and	r24, r24
    2e16:	11 f0       	breq	.+4      	; 0x2e1c <__floatsisf+0x48>
    2e18:	96 e9       	ldi	r25, 0x96	; 150
    2e1a:	11 c0       	rjmp	.+34     	; 0x2e3e <__floatsisf+0x6a>
    2e1c:	77 23       	and	r23, r23
    2e1e:	21 f0       	breq	.+8      	; 0x2e28 <__floatsisf+0x54>
    2e20:	9e e8       	ldi	r25, 0x8E	; 142
    2e22:	87 2f       	mov	r24, r23
    2e24:	76 2f       	mov	r23, r22
    2e26:	05 c0       	rjmp	.+10     	; 0x2e32 <__floatsisf+0x5e>
    2e28:	66 23       	and	r22, r22
    2e2a:	71 f0       	breq	.+28     	; 0x2e48 <__floatsisf+0x74>
    2e2c:	96 e8       	ldi	r25, 0x86	; 134
    2e2e:	86 2f       	mov	r24, r22
    2e30:	70 e0       	ldi	r23, 0x00	; 0
    2e32:	60 e0       	ldi	r22, 0x00	; 0
    2e34:	2a f0       	brmi	.+10     	; 0x2e40 <__floatsisf+0x6c>
    2e36:	9a 95       	dec	r25
    2e38:	66 0f       	add	r22, r22
    2e3a:	77 1f       	adc	r23, r23
    2e3c:	88 1f       	adc	r24, r24
    2e3e:	da f7       	brpl	.-10     	; 0x2e36 <__floatsisf+0x62>
    2e40:	88 0f       	add	r24, r24
    2e42:	96 95       	lsr	r25
    2e44:	87 95       	ror	r24
    2e46:	97 f9       	bld	r25, 7
    2e48:	08 95       	ret

00002e4a <__fp_cmp>:
    2e4a:	99 0f       	add	r25, r25
    2e4c:	00 08       	sbc	r0, r0
    2e4e:	55 0f       	add	r21, r21
    2e50:	aa 0b       	sbc	r26, r26
    2e52:	e0 e8       	ldi	r30, 0x80	; 128
    2e54:	fe ef       	ldi	r31, 0xFE	; 254
    2e56:	16 16       	cp	r1, r22
    2e58:	17 06       	cpc	r1, r23
    2e5a:	e8 07       	cpc	r30, r24
    2e5c:	f9 07       	cpc	r31, r25
    2e5e:	c0 f0       	brcs	.+48     	; 0x2e90 <__fp_cmp+0x46>
    2e60:	12 16       	cp	r1, r18
    2e62:	13 06       	cpc	r1, r19
    2e64:	e4 07       	cpc	r30, r20
    2e66:	f5 07       	cpc	r31, r21
    2e68:	98 f0       	brcs	.+38     	; 0x2e90 <__fp_cmp+0x46>
    2e6a:	62 1b       	sub	r22, r18
    2e6c:	73 0b       	sbc	r23, r19
    2e6e:	84 0b       	sbc	r24, r20
    2e70:	95 0b       	sbc	r25, r21
    2e72:	39 f4       	brne	.+14     	; 0x2e82 <__fp_cmp+0x38>
    2e74:	0a 26       	eor	r0, r26
    2e76:	61 f0       	breq	.+24     	; 0x2e90 <__fp_cmp+0x46>
    2e78:	23 2b       	or	r18, r19
    2e7a:	24 2b       	or	r18, r20
    2e7c:	25 2b       	or	r18, r21
    2e7e:	21 f4       	brne	.+8      	; 0x2e88 <__fp_cmp+0x3e>
    2e80:	08 95       	ret
    2e82:	0a 26       	eor	r0, r26
    2e84:	09 f4       	brne	.+2      	; 0x2e88 <__fp_cmp+0x3e>
    2e86:	a1 40       	sbci	r26, 0x01	; 1
    2e88:	a6 95       	lsr	r26
    2e8a:	8f ef       	ldi	r24, 0xFF	; 255
    2e8c:	81 1d       	adc	r24, r1
    2e8e:	81 1d       	adc	r24, r1
    2e90:	08 95       	ret

00002e92 <__fp_inf>:
    2e92:	97 f9       	bld	r25, 7
    2e94:	9f 67       	ori	r25, 0x7F	; 127
    2e96:	80 e8       	ldi	r24, 0x80	; 128
    2e98:	70 e0       	ldi	r23, 0x00	; 0
    2e9a:	60 e0       	ldi	r22, 0x00	; 0
    2e9c:	08 95       	ret

00002e9e <__fp_nan>:
    2e9e:	9f ef       	ldi	r25, 0xFF	; 255
    2ea0:	80 ec       	ldi	r24, 0xC0	; 192
    2ea2:	08 95       	ret

00002ea4 <__fp_pscA>:
    2ea4:	00 24       	eor	r0, r0
    2ea6:	0a 94       	dec	r0
    2ea8:	16 16       	cp	r1, r22
    2eaa:	17 06       	cpc	r1, r23
    2eac:	18 06       	cpc	r1, r24
    2eae:	09 06       	cpc	r0, r25
    2eb0:	08 95       	ret

00002eb2 <__fp_pscB>:
    2eb2:	00 24       	eor	r0, r0
    2eb4:	0a 94       	dec	r0
    2eb6:	12 16       	cp	r1, r18
    2eb8:	13 06       	cpc	r1, r19
    2eba:	14 06       	cpc	r1, r20
    2ebc:	05 06       	cpc	r0, r21
    2ebe:	08 95       	ret

00002ec0 <__fp_round>:
    2ec0:	09 2e       	mov	r0, r25
    2ec2:	03 94       	inc	r0
    2ec4:	00 0c       	add	r0, r0
    2ec6:	11 f4       	brne	.+4      	; 0x2ecc <__fp_round+0xc>
    2ec8:	88 23       	and	r24, r24
    2eca:	52 f0       	brmi	.+20     	; 0x2ee0 <__fp_round+0x20>
    2ecc:	bb 0f       	add	r27, r27
    2ece:	40 f4       	brcc	.+16     	; 0x2ee0 <__fp_round+0x20>
    2ed0:	bf 2b       	or	r27, r31
    2ed2:	11 f4       	brne	.+4      	; 0x2ed8 <__fp_round+0x18>
    2ed4:	60 ff       	sbrs	r22, 0
    2ed6:	04 c0       	rjmp	.+8      	; 0x2ee0 <__fp_round+0x20>
    2ed8:	6f 5f       	subi	r22, 0xFF	; 255
    2eda:	7f 4f       	sbci	r23, 0xFF	; 255
    2edc:	8f 4f       	sbci	r24, 0xFF	; 255
    2ede:	9f 4f       	sbci	r25, 0xFF	; 255
    2ee0:	08 95       	ret

00002ee2 <__fp_split3>:
    2ee2:	57 fd       	sbrc	r21, 7
    2ee4:	90 58       	subi	r25, 0x80	; 128
    2ee6:	44 0f       	add	r20, r20
    2ee8:	55 1f       	adc	r21, r21
    2eea:	59 f0       	breq	.+22     	; 0x2f02 <__fp_splitA+0x10>
    2eec:	5f 3f       	cpi	r21, 0xFF	; 255
    2eee:	71 f0       	breq	.+28     	; 0x2f0c <__fp_splitA+0x1a>
    2ef0:	47 95       	ror	r20

00002ef2 <__fp_splitA>:
    2ef2:	88 0f       	add	r24, r24
    2ef4:	97 fb       	bst	r25, 7
    2ef6:	99 1f       	adc	r25, r25
    2ef8:	61 f0       	breq	.+24     	; 0x2f12 <__fp_splitA+0x20>
    2efa:	9f 3f       	cpi	r25, 0xFF	; 255
    2efc:	79 f0       	breq	.+30     	; 0x2f1c <__fp_splitA+0x2a>
    2efe:	87 95       	ror	r24
    2f00:	08 95       	ret
    2f02:	12 16       	cp	r1, r18
    2f04:	13 06       	cpc	r1, r19
    2f06:	14 06       	cpc	r1, r20
    2f08:	55 1f       	adc	r21, r21
    2f0a:	f2 cf       	rjmp	.-28     	; 0x2ef0 <__fp_split3+0xe>
    2f0c:	46 95       	lsr	r20
    2f0e:	f1 df       	rcall	.-30     	; 0x2ef2 <__fp_splitA>
    2f10:	08 c0       	rjmp	.+16     	; 0x2f22 <__fp_splitA+0x30>
    2f12:	16 16       	cp	r1, r22
    2f14:	17 06       	cpc	r1, r23
    2f16:	18 06       	cpc	r1, r24
    2f18:	99 1f       	adc	r25, r25
    2f1a:	f1 cf       	rjmp	.-30     	; 0x2efe <__fp_splitA+0xc>
    2f1c:	86 95       	lsr	r24
    2f1e:	71 05       	cpc	r23, r1
    2f20:	61 05       	cpc	r22, r1
    2f22:	08 94       	sec
    2f24:	08 95       	ret

00002f26 <__fp_zero>:
    2f26:	e8 94       	clt

00002f28 <__fp_szero>:
    2f28:	bb 27       	eor	r27, r27
    2f2a:	66 27       	eor	r22, r22
    2f2c:	77 27       	eor	r23, r23
    2f2e:	cb 01       	movw	r24, r22
    2f30:	97 f9       	bld	r25, 7
    2f32:	08 95       	ret

00002f34 <__gesf2>:
    2f34:	8a df       	rcall	.-236    	; 0x2e4a <__fp_cmp>
    2f36:	08 f4       	brcc	.+2      	; 0x2f3a <__gesf2+0x6>
    2f38:	8f ef       	ldi	r24, 0xFF	; 255
    2f3a:	08 95       	ret

00002f3c <__mulsf3>:
    2f3c:	0b d0       	rcall	.+22     	; 0x2f54 <__mulsf3x>
    2f3e:	c0 cf       	rjmp	.-128    	; 0x2ec0 <__fp_round>
    2f40:	b1 df       	rcall	.-158    	; 0x2ea4 <__fp_pscA>
    2f42:	28 f0       	brcs	.+10     	; 0x2f4e <__mulsf3+0x12>
    2f44:	b6 df       	rcall	.-148    	; 0x2eb2 <__fp_pscB>
    2f46:	18 f0       	brcs	.+6      	; 0x2f4e <__mulsf3+0x12>
    2f48:	95 23       	and	r25, r21
    2f4a:	09 f0       	breq	.+2      	; 0x2f4e <__mulsf3+0x12>
    2f4c:	a2 cf       	rjmp	.-188    	; 0x2e92 <__fp_inf>
    2f4e:	a7 cf       	rjmp	.-178    	; 0x2e9e <__fp_nan>
    2f50:	11 24       	eor	r1, r1
    2f52:	ea cf       	rjmp	.-44     	; 0x2f28 <__fp_szero>

00002f54 <__mulsf3x>:
    2f54:	c6 df       	rcall	.-116    	; 0x2ee2 <__fp_split3>
    2f56:	a0 f3       	brcs	.-24     	; 0x2f40 <__mulsf3+0x4>

00002f58 <__mulsf3_pse>:
    2f58:	95 9f       	mul	r25, r21
    2f5a:	d1 f3       	breq	.-12     	; 0x2f50 <__mulsf3+0x14>
    2f5c:	95 0f       	add	r25, r21
    2f5e:	50 e0       	ldi	r21, 0x00	; 0
    2f60:	55 1f       	adc	r21, r21
    2f62:	62 9f       	mul	r22, r18
    2f64:	f0 01       	movw	r30, r0
    2f66:	72 9f       	mul	r23, r18
    2f68:	bb 27       	eor	r27, r27
    2f6a:	f0 0d       	add	r31, r0
    2f6c:	b1 1d       	adc	r27, r1
    2f6e:	63 9f       	mul	r22, r19
    2f70:	aa 27       	eor	r26, r26
    2f72:	f0 0d       	add	r31, r0
    2f74:	b1 1d       	adc	r27, r1
    2f76:	aa 1f       	adc	r26, r26
    2f78:	64 9f       	mul	r22, r20
    2f7a:	66 27       	eor	r22, r22
    2f7c:	b0 0d       	add	r27, r0
    2f7e:	a1 1d       	adc	r26, r1
    2f80:	66 1f       	adc	r22, r22
    2f82:	82 9f       	mul	r24, r18
    2f84:	22 27       	eor	r18, r18
    2f86:	b0 0d       	add	r27, r0
    2f88:	a1 1d       	adc	r26, r1
    2f8a:	62 1f       	adc	r22, r18
    2f8c:	73 9f       	mul	r23, r19
    2f8e:	b0 0d       	add	r27, r0
    2f90:	a1 1d       	adc	r26, r1
    2f92:	62 1f       	adc	r22, r18
    2f94:	83 9f       	mul	r24, r19
    2f96:	a0 0d       	add	r26, r0
    2f98:	61 1d       	adc	r22, r1
    2f9a:	22 1f       	adc	r18, r18
    2f9c:	74 9f       	mul	r23, r20
    2f9e:	33 27       	eor	r19, r19
    2fa0:	a0 0d       	add	r26, r0
    2fa2:	61 1d       	adc	r22, r1
    2fa4:	23 1f       	adc	r18, r19
    2fa6:	84 9f       	mul	r24, r20
    2fa8:	60 0d       	add	r22, r0
    2faa:	21 1d       	adc	r18, r1
    2fac:	82 2f       	mov	r24, r18
    2fae:	76 2f       	mov	r23, r22
    2fb0:	6a 2f       	mov	r22, r26
    2fb2:	11 24       	eor	r1, r1
    2fb4:	9f 57       	subi	r25, 0x7F	; 127
    2fb6:	50 40       	sbci	r21, 0x00	; 0
    2fb8:	8a f0       	brmi	.+34     	; 0x2fdc <__mulsf3_pse+0x84>
    2fba:	e1 f0       	breq	.+56     	; 0x2ff4 <__mulsf3_pse+0x9c>
    2fbc:	88 23       	and	r24, r24
    2fbe:	4a f0       	brmi	.+18     	; 0x2fd2 <__mulsf3_pse+0x7a>
    2fc0:	ee 0f       	add	r30, r30
    2fc2:	ff 1f       	adc	r31, r31
    2fc4:	bb 1f       	adc	r27, r27
    2fc6:	66 1f       	adc	r22, r22
    2fc8:	77 1f       	adc	r23, r23
    2fca:	88 1f       	adc	r24, r24
    2fcc:	91 50       	subi	r25, 0x01	; 1
    2fce:	50 40       	sbci	r21, 0x00	; 0
    2fd0:	a9 f7       	brne	.-22     	; 0x2fbc <__mulsf3_pse+0x64>
    2fd2:	9e 3f       	cpi	r25, 0xFE	; 254
    2fd4:	51 05       	cpc	r21, r1
    2fd6:	70 f0       	brcs	.+28     	; 0x2ff4 <__mulsf3_pse+0x9c>
    2fd8:	5c cf       	rjmp	.-328    	; 0x2e92 <__fp_inf>
    2fda:	a6 cf       	rjmp	.-180    	; 0x2f28 <__fp_szero>
    2fdc:	5f 3f       	cpi	r21, 0xFF	; 255
    2fde:	ec f3       	brlt	.-6      	; 0x2fda <__mulsf3_pse+0x82>
    2fe0:	98 3e       	cpi	r25, 0xE8	; 232
    2fe2:	dc f3       	brlt	.-10     	; 0x2fda <__mulsf3_pse+0x82>
    2fe4:	86 95       	lsr	r24
    2fe6:	77 95       	ror	r23
    2fe8:	67 95       	ror	r22
    2fea:	b7 95       	ror	r27
    2fec:	f7 95       	ror	r31
    2fee:	e7 95       	ror	r30
    2ff0:	9f 5f       	subi	r25, 0xFF	; 255
    2ff2:	c1 f7       	brne	.-16     	; 0x2fe4 <__mulsf3_pse+0x8c>
    2ff4:	fe 2b       	or	r31, r30
    2ff6:	88 0f       	add	r24, r24
    2ff8:	91 1d       	adc	r25, r1
    2ffa:	96 95       	lsr	r25
    2ffc:	87 95       	ror	r24
    2ffe:	97 f9       	bld	r25, 7
    3000:	08 95       	ret

00003002 <eeprom_write_byte>:
    3002:	26 2f       	mov	r18, r22

00003004 <eeprom_write_r18>:
    3004:	f9 99       	sbic	0x1f, 1	; 31
    3006:	fe cf       	rjmp	.-4      	; 0x3004 <eeprom_write_r18>
    3008:	1f ba       	out	0x1f, r1	; 31
    300a:	92 bd       	out	0x22, r25	; 34
    300c:	81 bd       	out	0x21, r24	; 33
    300e:	20 bd       	out	0x20, r18	; 32
    3010:	0f b6       	in	r0, 0x3f	; 63
    3012:	f8 94       	cli
    3014:	fa 9a       	sbi	0x1f, 2	; 31
    3016:	f9 9a       	sbi	0x1f, 1	; 31
    3018:	0f be       	out	0x3f, r0	; 63
    301a:	01 96       	adiw	r24, 0x01	; 1
    301c:	08 95       	ret

0000301e <_exit>:
    301e:	f8 94       	cli

00003020 <__stop_program>:
    3020:	ff cf       	rjmp	.-2      	; 0x3020 <__stop_program>
